
andi.elf:     file format elf32-littleriscv


Disassembly of section .riscv.attributes:

00000000 <begin_signature-0x40001000>:
   0:	1941                	.insn	2, 0x1941
   2:	0000                	.insn	2, 0x
   4:	7200                	.insn	2, 0x7200
   6:	7369                	.insn	2, 0x7369
   8:	01007663          	bgeu	x0,x16,14 <_start-0x3fffffec>
   c:	0000000f          	fence	unknown,unknown
  10:	7205                	.insn	2, 0x7205
  12:	3376                	.insn	2, 0x3376
  14:	6932                	.insn	2, 0x6932
  16:	7032                	.insn	2, 0x7032
  18:	0031                	.insn	2, 0x0031

Disassembly of section .text.init:

40000000 <_start>:
40000000:	0040006f          	j	40000004 <reset_vector>

40000004 <reset_vector>:
40000004:	00000093          	li	x1,0
40000008:	00000113          	li	x2,0
4000000c:	00000193          	li	x3,0
40000010:	00000213          	li	x4,0
40000014:	00000293          	li	x5,0
40000018:	00000313          	li	x6,0
4000001c:	00000393          	li	x7,0
40000020:	00000413          	li	x8,0
40000024:	00000493          	li	x9,0
40000028:	00000513          	li	x10,0
4000002c:	00000593          	li	x11,0
40000030:	00000613          	li	x12,0
40000034:	00000693          	li	x13,0
40000038:	00000713          	li	x14,0
4000003c:	00000793          	li	x15,0
40000040:	00000813          	li	x16,0
40000044:	00000893          	li	x17,0
40000048:	00000913          	li	x18,0
4000004c:	00000993          	li	x19,0
40000050:	00000a13          	li	x20,0
40000054:	00000a93          	li	x21,0
40000058:	00000b13          	li	x22,0
4000005c:	00000b93          	li	x23,0
40000060:	00000c13          	li	x24,0
40000064:	00000c93          	li	x25,0
40000068:	00000d13          	li	x26,0
4000006c:	00000d93          	li	x27,0
40000070:	00000e13          	li	x28,0
40000074:	00000e93          	li	x29,0
40000078:	00000f13          	li	x30,0
4000007c:	00000f93          	li	x31,0

40000080 <test_2>:
40000080:	00200193          	li	x3,2
40000084:	ff0100b7          	lui	x1,0xff010
40000088:	f0008093          	addi	x1,x1,-256 # ff00ff00 <begin_signature+0xbf00ef00>
4000008c:	f0f0f713          	andi	x14,x1,-241
40000090:	ff0103b7          	lui	x7,0xff010
40000094:	f0038393          	addi	x7,x7,-256 # ff00ff00 <begin_signature+0xbf00ef00>
40000098:	1a771463          	bne	x14,x7,40000240 <fail>

4000009c <test_3>:
4000009c:	00300193          	li	x3,3
400000a0:	0ff010b7          	lui	x1,0xff01
400000a4:	ff008093          	addi	x1,x1,-16 # ff00ff0 <_start-0x300ff010>
400000a8:	0f00f713          	andi	x14,x1,240
400000ac:	0f000393          	li	x7,240
400000b0:	18771863          	bne	x14,x7,40000240 <fail>

400000b4 <test_4>:
400000b4:	00400193          	li	x3,4
400000b8:	00ff00b7          	lui	x1,0xff0
400000bc:	0ff08093          	addi	x1,x1,255 # ff00ff <_start-0x3f00ff01>
400000c0:	70f0f713          	andi	x14,x1,1807
400000c4:	00f00393          	li	x7,15
400000c8:	16771c63          	bne	x14,x7,40000240 <fail>

400000cc <test_5>:
400000cc:	00500193          	li	x3,5
400000d0:	f00ff0b7          	lui	x1,0xf00ff
400000d4:	00f08093          	addi	x1,x1,15 # f00ff00f <begin_signature+0xb00fe00f>
400000d8:	0f00f713          	andi	x14,x1,240
400000dc:	00000393          	li	x7,0
400000e0:	16771063          	bne	x14,x7,40000240 <fail>

400000e4 <test_6>:
400000e4:	00600193          	li	x3,6
400000e8:	ff0100b7          	lui	x1,0xff010
400000ec:	f0008093          	addi	x1,x1,-256 # ff00ff00 <begin_signature+0xbf00ef00>
400000f0:	0f00f093          	andi	x1,x1,240
400000f4:	00000393          	li	x7,0
400000f8:	14709463          	bne	x1,x7,40000240 <fail>

400000fc <test_7>:
400000fc:	00700193          	li	x3,7
40000100:	00000213          	li	x4,0
40000104:	0ff010b7          	lui	x1,0xff01
40000108:	ff008093          	addi	x1,x1,-16 # ff00ff0 <_start-0x300ff010>
4000010c:	70f0f713          	andi	x14,x1,1807
40000110:	00070313          	mv	x6,x14
40000114:	00120213          	addi	x4,x4,1 # 1 <_start-0x3fffffff>
40000118:	00200293          	li	x5,2
4000011c:	fe5214e3          	bne	x4,x5,40000104 <test_7+0x8>
40000120:	70000393          	li	x7,1792
40000124:	10731e63          	bne	x6,x7,40000240 <fail>

40000128 <test_8>:
40000128:	00800193          	li	x3,8
4000012c:	00000213          	li	x4,0
40000130:	00ff00b7          	lui	x1,0xff0
40000134:	0ff08093          	addi	x1,x1,255 # ff00ff <_start-0x3f00ff01>
40000138:	0f00f713          	andi	x14,x1,240
4000013c:	00000013          	nop
40000140:	00070313          	mv	x6,x14
40000144:	00120213          	addi	x4,x4,1 # 1 <_start-0x3fffffff>
40000148:	00200293          	li	x5,2
4000014c:	fe5212e3          	bne	x4,x5,40000130 <test_8+0x8>
40000150:	0f000393          	li	x7,240
40000154:	0e731663          	bne	x6,x7,40000240 <fail>

40000158 <test_9>:
40000158:	00900193          	li	x3,9
4000015c:	00000213          	li	x4,0
40000160:	f00ff0b7          	lui	x1,0xf00ff
40000164:	00f08093          	addi	x1,x1,15 # f00ff00f <begin_signature+0xb00fe00f>
40000168:	f0f0f713          	andi	x14,x1,-241
4000016c:	00000013          	nop
40000170:	00000013          	nop
40000174:	00070313          	mv	x6,x14
40000178:	00120213          	addi	x4,x4,1 # 1 <_start-0x3fffffff>
4000017c:	00200293          	li	x5,2
40000180:	fe5210e3          	bne	x4,x5,40000160 <test_9+0x8>
40000184:	f00ff3b7          	lui	x7,0xf00ff
40000188:	00f38393          	addi	x7,x7,15 # f00ff00f <begin_signature+0xb00fe00f>
4000018c:	0a731a63          	bne	x6,x7,40000240 <fail>

40000190 <test_10>:
40000190:	00a00193          	li	x3,10
40000194:	00000213          	li	x4,0
40000198:	0ff010b7          	lui	x1,0xff01
4000019c:	ff008093          	addi	x1,x1,-16 # ff00ff0 <_start-0x300ff010>
400001a0:	70f0f713          	andi	x14,x1,1807
400001a4:	00120213          	addi	x4,x4,1 # 1 <_start-0x3fffffff>
400001a8:	00200293          	li	x5,2
400001ac:	fe5216e3          	bne	x4,x5,40000198 <test_10+0x8>
400001b0:	70000393          	li	x7,1792
400001b4:	08771663          	bne	x14,x7,40000240 <fail>

400001b8 <test_11>:
400001b8:	00b00193          	li	x3,11
400001bc:	00000213          	li	x4,0
400001c0:	00ff00b7          	lui	x1,0xff0
400001c4:	0ff08093          	addi	x1,x1,255 # ff00ff <_start-0x3f00ff01>
400001c8:	00000013          	nop
400001cc:	0f00f713          	andi	x14,x1,240
400001d0:	00120213          	addi	x4,x4,1 # 1 <_start-0x3fffffff>
400001d4:	00200293          	li	x5,2
400001d8:	fe5214e3          	bne	x4,x5,400001c0 <test_11+0x8>
400001dc:	0f000393          	li	x7,240
400001e0:	06771063          	bne	x14,x7,40000240 <fail>

400001e4 <test_12>:
400001e4:	00c00193          	li	x3,12
400001e8:	00000213          	li	x4,0
400001ec:	f00ff0b7          	lui	x1,0xf00ff
400001f0:	00f08093          	addi	x1,x1,15 # f00ff00f <begin_signature+0xb00fe00f>
400001f4:	00000013          	nop
400001f8:	00000013          	nop
400001fc:	70f0f713          	andi	x14,x1,1807
40000200:	00120213          	addi	x4,x4,1 # 1 <_start-0x3fffffff>
40000204:	00200293          	li	x5,2
40000208:	fe5212e3          	bne	x4,x5,400001ec <test_12+0x8>
4000020c:	00f00393          	li	x7,15
40000210:	02771863          	bne	x14,x7,40000240 <fail>

40000214 <test_13>:
40000214:	00d00193          	li	x3,13
40000218:	0f007093          	andi	x1,x0,240
4000021c:	00000393          	li	x7,0
40000220:	02709063          	bne	x1,x7,40000240 <fail>

40000224 <test_14>:
40000224:	00e00193          	li	x3,14
40000228:	00ff00b7          	lui	x1,0xff0
4000022c:	0ff08093          	addi	x1,x1,255 # ff00ff <_start-0x3f00ff01>
40000230:	70f0f013          	andi	x0,x1,1807
40000234:	00000393          	li	x7,0
40000238:	00701463          	bne	x0,x7,40000240 <fail>
4000023c:	00301863          	bne	x0,x3,4000024c <pass>

40000240 <fail>:
40000240:	eeeef1b7          	lui	x3,0xeeeef
40000244:	eee18193          	addi	x3,x3,-274 # eeeeeeee <begin_signature+0xaeeedeee>

40000248 <f>:
40000248:	0000006f          	j	40000248 <f>

4000024c <pass>:
4000024c:	fff00193          	li	x3,-1

40000250 <p>:
40000250:	0000006f          	j	40000250 <p>
40000254:	c0001073          	unimp
	...
