
jalr.elf:     file format elf32-littleriscv


Disassembly of section .riscv.attributes:

00000000 <begin_signature-0x400001d0>:
   0:	1941                	.insn	2, 0x1941
   2:	0000                	.insn	2, 0x
   4:	7200                	.insn	2, 0x7200
   6:	7369                	.insn	2, 0x7369
   8:	01007663          	bgeu	x0,x16,14 <_start-0x3fffffec>
   c:	0000000f          	fence	unknown,unknown
  10:	7205                	.insn	2, 0x7205
  12:	3376                	.insn	2, 0x3376
  14:	6932                	.insn	2, 0x6932
  16:	7032                	.insn	2, 0x7032
  18:	0031                	.insn	2, 0x0031

Disassembly of section .text.init:

40000000 <_start>:
40000000:	0040006f          	j	40000004 <reset_vector>

40000004 <reset_vector>:
40000004:	00000093          	li	x1,0
40000008:	00000113          	li	x2,0
4000000c:	00000193          	li	x3,0
40000010:	00000213          	li	x4,0
40000014:	00000293          	li	x5,0
40000018:	00000313          	li	x6,0
4000001c:	00000393          	li	x7,0
40000020:	00000413          	li	x8,0
40000024:	00000493          	li	x9,0
40000028:	00000513          	li	x10,0
4000002c:	00000593          	li	x11,0
40000030:	00000613          	li	x12,0
40000034:	00000693          	li	x13,0
40000038:	00000713          	li	x14,0
4000003c:	00000793          	li	x15,0
40000040:	00000813          	li	x16,0
40000044:	00000893          	li	x17,0
40000048:	00000913          	li	x18,0
4000004c:	00000993          	li	x19,0
40000050:	00000a13          	li	x20,0
40000054:	00000a93          	li	x21,0
40000058:	00000b13          	li	x22,0
4000005c:	00000b93          	li	x23,0
40000060:	00000c13          	li	x24,0
40000064:	00000c93          	li	x25,0
40000068:	00000d13          	li	x26,0
4000006c:	00000d93          	li	x27,0
40000070:	00000e13          	li	x28,0
40000074:	00000e93          	li	x29,0
40000078:	00000f13          	li	x30,0
4000007c:	00000f93          	li	x31,0

40000080 <test_2>:
40000080:	00200193          	li	x3,2
40000084:	00000293          	li	x5,0
40000088:	00000317          	auipc	x6,0x0
4000008c:	01030313          	addi	x6,x6,16 # 40000098 <target_2>
40000090:	000302e7          	jalr	x5,x6

40000094 <linkaddr_2>:
40000094:	0e00006f          	j	40000174 <fail>

40000098 <target_2>:
40000098:	00000317          	auipc	x6,0x0
4000009c:	ffc30313          	addi	x6,x6,-4 # 40000094 <linkaddr_2>
400000a0:	0c629a63          	bne	x5,x6,40000174 <fail>

400000a4 <test_3>:
400000a4:	00300193          	li	x3,3
400000a8:	00000297          	auipc	x5,0x0
400000ac:	01028293          	addi	x5,x5,16 # 400000b8 <target_3>
400000b0:	000282e7          	jalr	x5,x5

400000b4 <linkaddr_3>:
400000b4:	0c00006f          	j	40000174 <fail>

400000b8 <target_3>:
400000b8:	00000317          	auipc	x6,0x0
400000bc:	ffc30313          	addi	x6,x6,-4 # 400000b4 <linkaddr_3>
400000c0:	0a629a63          	bne	x5,x6,40000174 <fail>

400000c4 <test_4>:
400000c4:	00400193          	li	x3,4
400000c8:	00000213          	li	x4,0
400000cc:	00000317          	auipc	x6,0x0
400000d0:	01030313          	addi	x6,x6,16 # 400000dc <test_4+0x18>
400000d4:	000306e7          	jalr	x13,x6
400000d8:	08301e63          	bne	x0,x3,40000174 <fail>
400000dc:	00120213          	addi	x4,x4,1 # 1 <_start-0x3fffffff>
400000e0:	00200293          	li	x5,2
400000e4:	fe5214e3          	bne	x4,x5,400000cc <test_4+0x8>

400000e8 <test_5>:
400000e8:	00500193          	li	x3,5
400000ec:	00000213          	li	x4,0
400000f0:	00000317          	auipc	x6,0x0
400000f4:	01430313          	addi	x6,x6,20 # 40000104 <test_5+0x1c>
400000f8:	00000013          	nop
400000fc:	000306e7          	jalr	x13,x6
40000100:	06301a63          	bne	x0,x3,40000174 <fail>
40000104:	00120213          	addi	x4,x4,1 # 1 <_start-0x3fffffff>
40000108:	00200293          	li	x5,2
4000010c:	fe5212e3          	bne	x4,x5,400000f0 <test_5+0x8>

40000110 <test_6>:
40000110:	00600193          	li	x3,6
40000114:	00000213          	li	x4,0
40000118:	00000317          	auipc	x6,0x0
4000011c:	01830313          	addi	x6,x6,24 # 40000130 <test_6+0x20>
40000120:	00000013          	nop
40000124:	00000013          	nop
40000128:	000306e7          	jalr	x13,x6
4000012c:	04301463          	bne	x0,x3,40000174 <fail>
40000130:	00120213          	addi	x4,x4,1 # 1 <_start-0x3fffffff>
40000134:	00200293          	li	x5,2
40000138:	fe5210e3          	bne	x4,x5,40000118 <test_6+0x8>

4000013c <test_7>:
4000013c:	00700193          	li	x3,7
40000140:	00100293          	li	x5,1
40000144:	00000317          	auipc	x6,0x0
40000148:	01c30313          	addi	x6,x6,28 # 40000160 <test_7+0x24>
4000014c:	ffc30067          	jr	-4(x6)
40000150:	00128293          	addi	x5,x5,1
40000154:	00128293          	addi	x5,x5,1
40000158:	00128293          	addi	x5,x5,1
4000015c:	00128293          	addi	x5,x5,1
40000160:	00128293          	addi	x5,x5,1
40000164:	00128293          	addi	x5,x5,1
40000168:	00400393          	li	x7,4
4000016c:	00729463          	bne	x5,x7,40000174 <fail>
40000170:	00301863          	bne	x0,x3,40000180 <pass>

40000174 <fail>:
40000174:	eeeef1b7          	lui	x3,0xeeeef
40000178:	eee18193          	addi	x3,x3,-274 # eeeeeeee <begin_signature+0xaeeeed1e>

4000017c <f>:
4000017c:	0000006f          	j	4000017c <f>

40000180 <pass>:
40000180:	fff00193          	li	x3,-1

40000184 <p>:
40000184:	0000006f          	j	40000184 <p>
40000188:	c0001073          	unimp
	...
