
lb.elf:     file format elf32-littleriscv


Disassembly of section .data:

40001000 <_sdata>:
40001000:	    	.insn	10, 0x0ff000ff
40001008:	 

40001001 <tdat2>:
	...

40001002 <tdat3>:
40001002:	                	.insn	2, 0x0ff0

40001003 <tdat4>:
40001003:	0000000f          	fence	unknown,unknown
	...

Disassembly of section .riscv.attributes:

00000000 <.riscv.attributes>:
   0:	1941                	.insn	2, 0x1941
   2:	0000                	.insn	2, 0x
   4:	7200                	.insn	2, 0x7200
   6:	7369                	.insn	2, 0x7369
   8:	01007663          	bgeu	x0,x16,14 <_start-0x3fffffec>
   c:	0000000f          	fence	unknown,unknown
  10:	7205                	.insn	2, 0x7205
  12:	3376                	.insn	2, 0x3376
  14:	6932                	.insn	2, 0x6932
  16:	7032                	.insn	2, 0x7032
  18:	0031                	.insn	2, 0x0031

Disassembly of section .text.init:

40000000 <_start>:
40000000:	0040006f          	j	40000004 <reset_vector>

40000004 <reset_vector>:
40000004:	00000093          	li	x1,0
40000008:	00000113          	li	x2,0
4000000c:	00000193          	li	x3,0
40000010:	00000213          	li	x4,0
40000014:	00000293          	li	x5,0
40000018:	00000313          	li	x6,0
4000001c:	00000393          	li	x7,0
40000020:	00000413          	li	x8,0
40000024:	00000493          	li	x9,0
40000028:	00000513          	li	x10,0
4000002c:	00000593          	li	x11,0
40000030:	00000613          	li	x12,0
40000034:	00000693          	li	x13,0
40000038:	00000713          	li	x14,0
4000003c:	00000793          	li	x15,0
40000040:	00000813          	li	x16,0
40000044:	00000893          	li	x17,0
40000048:	00000913          	li	x18,0
4000004c:	00000993          	li	x19,0
40000050:	00000a13          	li	x20,0
40000054:	00000a93          	li	x21,0
40000058:	00000b13          	li	x22,0
4000005c:	00000b93          	li	x23,0
40000060:	00000c13          	li	x24,0
40000064:	00000c93          	li	x25,0
40000068:	00000d13          	li	x26,0
4000006c:	00000d93          	li	x27,0
40000070:	00000e13          	li	x28,0
40000074:	00000e93          	li	x29,0
40000078:	00000f13          	li	x30,0
4000007c:	00000f93          	li	x31,0

40000080 <test_2>:
40000080:	00200193          	li	x3,2
40000084:	fff00793          	li	x15,-1
40000088:	00001097          	auipc	x1,0x1
4000008c:	f7808093          	addi	x1,x1,-136 # 40001000 <_sdata>
40000090:	00008703          	lb	x14,0(x1)
40000094:	fff00393          	li	x7,-1
40000098:	24771a63          	bne	x14,x7,400002ec <fail>

4000009c <test_3>:
4000009c:	00300193          	li	x3,3
400000a0:	00000793          	li	x15,0
400000a4:	00001097          	auipc	x1,0x1
400000a8:	f5c08093          	addi	x1,x1,-164 # 40001000 <_sdata>
400000ac:	00108703          	lb	x14,1(x1)
400000b0:	00000393          	li	x7,0
400000b4:	22771c63          	bne	x14,x7,400002ec <fail>

400000b8 <test_4>:
400000b8:	00400193          	li	x3,4
400000bc:	ff000793          	li	x15,-16
400000c0:	00001097          	auipc	x1,0x1
400000c4:	f4008093          	addi	x1,x1,-192 # 40001000 <_sdata>
400000c8:	00208703          	lb	x14,2(x1)
400000cc:	ff000393          	li	x7,-16
400000d0:	20771e63          	bne	x14,x7,400002ec <fail>

400000d4 <test_5>:
400000d4:	00500193          	li	x3,5
400000d8:	00f00793          	li	x15,15
400000dc:	00001097          	auipc	x1,0x1
400000e0:	f2408093          	addi	x1,x1,-220 # 40001000 <_sdata>
400000e4:	00308703          	lb	x14,3(x1)
400000e8:	00f00393          	li	x7,15
400000ec:	20771063          	bne	x14,x7,400002ec <fail>

400000f0 <test_6>:
400000f0:	00600193          	li	x3,6
400000f4:	fff00793          	li	x15,-1
400000f8:	00001097          	auipc	x1,0x1
400000fc:	f0b08093          	addi	x1,x1,-245 # 40001003 <tdat4>
40000100:	ffd08703          	lb	x14,-3(x1)
40000104:	fff00393          	li	x7,-1
40000108:	1e771263          	bne	x14,x7,400002ec <fail>

4000010c <test_7>:
4000010c:	00700193          	li	x3,7
40000110:	00000793          	li	x15,0
40000114:	00001097          	auipc	x1,0x1
40000118:	eef08093          	addi	x1,x1,-273 # 40001003 <tdat4>
4000011c:	ffe08703          	lb	x14,-2(x1)
40000120:	00000393          	li	x7,0
40000124:	1c771463          	bne	x14,x7,400002ec <fail>

40000128 <test_8>:
40000128:	00800193          	li	x3,8
4000012c:	ff000793          	li	x15,-16
40000130:	00001097          	auipc	x1,0x1
40000134:	ed308093          	addi	x1,x1,-301 # 40001003 <tdat4>
40000138:	fff08703          	lb	x14,-1(x1)
4000013c:	ff000393          	li	x7,-16
40000140:	1a771663          	bne	x14,x7,400002ec <fail>

40000144 <test_9>:
40000144:	00900193          	li	x3,9
40000148:	00f00793          	li	x15,15
4000014c:	00001097          	auipc	x1,0x1
40000150:	eb708093          	addi	x1,x1,-329 # 40001003 <tdat4>
40000154:	00008703          	lb	x14,0(x1)
40000158:	00f00393          	li	x7,15
4000015c:	18771863          	bne	x14,x7,400002ec <fail>

40000160 <test_10>:
40000160:	00a00193          	li	x3,10
40000164:	00001097          	auipc	x1,0x1
40000168:	e9c08093          	addi	x1,x1,-356 # 40001000 <_sdata>
4000016c:	fe008093          	addi	x1,x1,-32
40000170:	02008283          	lb	x5,32(x1)
40000174:	fff00393          	li	x7,-1
40000178:	16729a63          	bne	x5,x7,400002ec <fail>

4000017c <test_11>:
4000017c:	00b00193          	li	x3,11
40000180:	00001097          	auipc	x1,0x1
40000184:	e8008093          	addi	x1,x1,-384 # 40001000 <_sdata>
40000188:	ffa08093          	addi	x1,x1,-6
4000018c:	00708283          	lb	x5,7(x1)
40000190:	00000393          	li	x7,0
40000194:	14729c63          	bne	x5,x7,400002ec <fail>

40000198 <test_12>:
40000198:	00c00193          	li	x3,12
4000019c:	00000213          	li	x4,0
400001a0:	00001097          	auipc	x1,0x1
400001a4:	e6108093          	addi	x1,x1,-415 # 40001001 <tdat2>
400001a8:	00108703          	lb	x14,1(x1)
400001ac:	00070313          	mv	x6,x14
400001b0:	ff000393          	li	x7,-16
400001b4:	12731c63          	bne	x6,x7,400002ec <fail>
400001b8:	00120213          	addi	x4,x4,1 # 1 <_start-0x3fffffff>
400001bc:	00200293          	li	x5,2
400001c0:	fe5210e3          	bne	x4,x5,400001a0 <test_12+0x8>

400001c4 <test_13>:
400001c4:	00d00193          	li	x3,13
400001c8:	00000213          	li	x4,0
400001cc:	00001097          	auipc	x1,0x1
400001d0:	e3608093          	addi	x1,x1,-458 # 40001002 <tdat3>
400001d4:	00108703          	lb	x14,1(x1)
400001d8:	00000013          	nop
400001dc:	00070313          	mv	x6,x14
400001e0:	00f00393          	li	x7,15
400001e4:	10731463          	bne	x6,x7,400002ec <fail>
400001e8:	00120213          	addi	x4,x4,1 # 1 <_start-0x3fffffff>
400001ec:	00200293          	li	x5,2
400001f0:	fc521ee3          	bne	x4,x5,400001cc <test_13+0x8>

400001f4 <test_14>:
400001f4:	00e00193          	li	x3,14
400001f8:	00000213          	li	x4,0
400001fc:	00001097          	auipc	x1,0x1
40000200:	e0408093          	addi	x1,x1,-508 # 40001000 <_sdata>
40000204:	00108703          	lb	x14,1(x1)
40000208:	00000013          	nop
4000020c:	00000013          	nop
40000210:	00070313          	mv	x6,x14
40000214:	00000393          	li	x7,0
40000218:	0c731a63          	bne	x6,x7,400002ec <fail>
4000021c:	00120213          	addi	x4,x4,1 # 1 <_start-0x3fffffff>
40000220:	00200293          	li	x5,2
40000224:	fc521ce3          	bne	x4,x5,400001fc <test_14+0x8>

40000228 <test_15>:
40000228:	00f00193          	li	x3,15
4000022c:	00000213          	li	x4,0
40000230:	00001097          	auipc	x1,0x1
40000234:	dd108093          	addi	x1,x1,-559 # 40001001 <tdat2>
40000238:	00108703          	lb	x14,1(x1)
4000023c:	ff000393          	li	x7,-16
40000240:	0a771663          	bne	x14,x7,400002ec <fail>
40000244:	00120213          	addi	x4,x4,1 # 1 <_start-0x3fffffff>
40000248:	00200293          	li	x5,2
4000024c:	fe5212e3          	bne	x4,x5,40000230 <test_15+0x8>

40000250 <test_16>:
40000250:	01000193          	li	x3,16
40000254:	00000213          	li	x4,0
40000258:	00001097          	auipc	x1,0x1
4000025c:	daa08093          	addi	x1,x1,-598 # 40001002 <tdat3>
40000260:	00000013          	nop
40000264:	00108703          	lb	x14,1(x1)
40000268:	00f00393          	li	x7,15
4000026c:	08771063          	bne	x14,x7,400002ec <fail>
40000270:	00120213          	addi	x4,x4,1 # 1 <_start-0x3fffffff>
40000274:	00200293          	li	x5,2
40000278:	fe5210e3          	bne	x4,x5,40000258 <test_16+0x8>

4000027c <test_17>:
4000027c:	01100193          	li	x3,17
40000280:	00000213          	li	x4,0
40000284:	00001097          	auipc	x1,0x1
40000288:	d7c08093          	addi	x1,x1,-644 # 40001000 <_sdata>
4000028c:	00000013          	nop
40000290:	00000013          	nop
40000294:	00108703          	lb	x14,1(x1)
40000298:	00000393          	li	x7,0
4000029c:	04771863          	bne	x14,x7,400002ec <fail>
400002a0:	00120213          	addi	x4,x4,1 # 1 <_start-0x3fffffff>
400002a4:	00200293          	li	x5,2
400002a8:	fc521ee3          	bne	x4,x5,40000284 <test_17+0x8>

400002ac <test_18>:
400002ac:	01200193          	li	x3,18
400002b0:	00001297          	auipc	x5,0x1
400002b4:	d5028293          	addi	x5,x5,-688 # 40001000 <_sdata>
400002b8:	00028103          	lb	x2,0(x5)
400002bc:	00200113          	li	x2,2
400002c0:	00200393          	li	x7,2
400002c4:	02711463          	bne	x2,x7,400002ec <fail>

400002c8 <test_19>:
400002c8:	01300193          	li	x3,19
400002cc:	00001297          	auipc	x5,0x1
400002d0:	d3428293          	addi	x5,x5,-716 # 40001000 <_sdata>
400002d4:	00028103          	lb	x2,0(x5)
400002d8:	00000013          	nop
400002dc:	00200113          	li	x2,2
400002e0:	00200393          	li	x7,2
400002e4:	00711463          	bne	x2,x7,400002ec <fail>
400002e8:	00301863          	bne	x0,x3,400002f8 <pass>

400002ec <fail>:
400002ec:	eeeef1b7          	lui	x3,0xeeeef
400002f0:	eee18193          	addi	x3,x3,-274 # eeeeeeee <_erodata+0xaeeeddee>

400002f4 <f>:
400002f4:	0000006f          	j	400002f4 <f>

400002f8 <pass>:
400002f8:	fff00193          	li	x3,-1

400002fc <p>:
400002fc:	0000006f          	j	400002fc <p>
40000300:	c0001073          	unimp
