
lhu.elf:     file format elf32-littleriscv


Disassembly of section .data:

40001000 <_sdata>:
40001000:	00ff    	.insn	10, 0xf00f0ff0ff0000ff
40001008:	 

40001002 <tdat2>:
40001002:	ff00                	.insn	2, 0xff00

40001004 <tdat3>:
40001004:	0ff0                	.insn	2, 0x0ff0

40001006 <tdat4>:
40001006:	0000f00f          	.insn	4, 0xf00f
4000100a:	0000                	.insn	2, 0x
4000100c:	0000                	.insn	2, 0x
	...

Disassembly of section .riscv.attributes:

00000000 <.riscv.attributes>:
   0:	1941                	.insn	2, 0x1941
   2:	0000                	.insn	2, 0x
   4:	7200                	.insn	2, 0x7200
   6:	7369                	.insn	2, 0x7369
   8:	01007663          	bgeu	x0,x16,14 <_start-0x3fffffec>
   c:	0000000f          	fence	unknown,unknown
  10:	7205                	.insn	2, 0x7205
  12:	3376                	.insn	2, 0x3376
  14:	6932                	.insn	2, 0x6932
  16:	7032                	.insn	2, 0x7032
  18:	0031                	.insn	2, 0x0031

Disassembly of section .text.init:

40000000 <_start>:
40000000:	0040006f          	j	40000004 <reset_vector>

40000004 <reset_vector>:
40000004:	00000093          	li	x1,0
40000008:	00000113          	li	x2,0
4000000c:	00000193          	li	x3,0
40000010:	00000213          	li	x4,0
40000014:	00000293          	li	x5,0
40000018:	00000313          	li	x6,0
4000001c:	00000393          	li	x7,0
40000020:	00000413          	li	x8,0
40000024:	00000493          	li	x9,0
40000028:	00000513          	li	x10,0
4000002c:	00000593          	li	x11,0
40000030:	00000613          	li	x12,0
40000034:	00000693          	li	x13,0
40000038:	00000713          	li	x14,0
4000003c:	00000793          	li	x15,0
40000040:	00000813          	li	x16,0
40000044:	00000893          	li	x17,0
40000048:	00000913          	li	x18,0
4000004c:	00000993          	li	x19,0
40000050:	00000a13          	li	x20,0
40000054:	00000a93          	li	x21,0
40000058:	00000b13          	li	x22,0
4000005c:	00000b93          	li	x23,0
40000060:	00000c13          	li	x24,0
40000064:	00000c93          	li	x25,0
40000068:	00000d13          	li	x26,0
4000006c:	00000d93          	li	x27,0
40000070:	00000e13          	li	x28,0
40000074:	00000e93          	li	x29,0
40000078:	00000f13          	li	x30,0
4000007c:	00000f93          	li	x31,0

40000080 <test_2>:
40000080:	00200193          	li	x3,2
40000084:	0ff00793          	li	x15,255
40000088:	00001097          	auipc	x1,0x1
4000008c:	f7808093          	addi	x1,x1,-136 # 40001000 <_sdata>
40000090:	0000d703          	lhu	x14,0(x1)
40000094:	0ff00393          	li	x7,255
40000098:	2a771063          	bne	x14,x7,40000338 <fail>

4000009c <test_3>:
4000009c:	00300193          	li	x3,3
400000a0:	000107b7          	lui	x15,0x10
400000a4:	f0078793          	addi	x15,x15,-256 # ff00 <_start-0x3fff0100>
400000a8:	00001097          	auipc	x1,0x1
400000ac:	f5808093          	addi	x1,x1,-168 # 40001000 <_sdata>
400000b0:	0020d703          	lhu	x14,2(x1)
400000b4:	000103b7          	lui	x7,0x10
400000b8:	f0038393          	addi	x7,x7,-256 # ff00 <_start-0x3fff0100>
400000bc:	26771e63          	bne	x14,x7,40000338 <fail>

400000c0 <test_4>:
400000c0:	00400193          	li	x3,4
400000c4:	000017b7          	lui	x15,0x1
400000c8:	ff078793          	addi	x15,x15,-16 # ff0 <_start-0x3ffff010>
400000cc:	00001097          	auipc	x1,0x1
400000d0:	f3408093          	addi	x1,x1,-204 # 40001000 <_sdata>
400000d4:	0040d703          	lhu	x14,4(x1)
400000d8:	000013b7          	lui	x7,0x1
400000dc:	ff038393          	addi	x7,x7,-16 # ff0 <_start-0x3ffff010>
400000e0:	24771c63          	bne	x14,x7,40000338 <fail>

400000e4 <test_5>:
400000e4:	00500193          	li	x3,5
400000e8:	0000f7b7          	lui	x15,0xf
400000ec:	00f78793          	addi	x15,x15,15 # f00f <_start-0x3fff0ff1>
400000f0:	00001097          	auipc	x1,0x1
400000f4:	f1008093          	addi	x1,x1,-240 # 40001000 <_sdata>
400000f8:	0060d703          	lhu	x14,6(x1)
400000fc:	0000f3b7          	lui	x7,0xf
40000100:	00f38393          	addi	x7,x7,15 # f00f <_start-0x3fff0ff1>
40000104:	22771a63          	bne	x14,x7,40000338 <fail>

40000108 <test_6>:
40000108:	00600193          	li	x3,6
4000010c:	0ff00793          	li	x15,255
40000110:	00001097          	auipc	x1,0x1
40000114:	ef608093          	addi	x1,x1,-266 # 40001006 <tdat4>
40000118:	ffa0d703          	lhu	x14,-6(x1)
4000011c:	0ff00393          	li	x7,255
40000120:	20771c63          	bne	x14,x7,40000338 <fail>

40000124 <test_7>:
40000124:	00700193          	li	x3,7
40000128:	000107b7          	lui	x15,0x10
4000012c:	f0078793          	addi	x15,x15,-256 # ff00 <_start-0x3fff0100>
40000130:	00001097          	auipc	x1,0x1
40000134:	ed608093          	addi	x1,x1,-298 # 40001006 <tdat4>
40000138:	ffc0d703          	lhu	x14,-4(x1)
4000013c:	000103b7          	lui	x7,0x10
40000140:	f0038393          	addi	x7,x7,-256 # ff00 <_start-0x3fff0100>
40000144:	1e771a63          	bne	x14,x7,40000338 <fail>

40000148 <test_8>:
40000148:	00800193          	li	x3,8
4000014c:	000017b7          	lui	x15,0x1
40000150:	ff078793          	addi	x15,x15,-16 # ff0 <_start-0x3ffff010>
40000154:	00001097          	auipc	x1,0x1
40000158:	eb208093          	addi	x1,x1,-334 # 40001006 <tdat4>
4000015c:	ffe0d703          	lhu	x14,-2(x1)
40000160:	000013b7          	lui	x7,0x1
40000164:	ff038393          	addi	x7,x7,-16 # ff0 <_start-0x3ffff010>
40000168:	1c771863          	bne	x14,x7,40000338 <fail>

4000016c <test_9>:
4000016c:	00900193          	li	x3,9
40000170:	0000f7b7          	lui	x15,0xf
40000174:	00f78793          	addi	x15,x15,15 # f00f <_start-0x3fff0ff1>
40000178:	00001097          	auipc	x1,0x1
4000017c:	e8e08093          	addi	x1,x1,-370 # 40001006 <tdat4>
40000180:	0000d703          	lhu	x14,0(x1)
40000184:	0000f3b7          	lui	x7,0xf
40000188:	00f38393          	addi	x7,x7,15 # f00f <_start-0x3fff0ff1>
4000018c:	1a771663          	bne	x14,x7,40000338 <fail>

40000190 <test_10>:
40000190:	00a00193          	li	x3,10
40000194:	00001097          	auipc	x1,0x1
40000198:	e6c08093          	addi	x1,x1,-404 # 40001000 <_sdata>
4000019c:	fe008093          	addi	x1,x1,-32
400001a0:	0200d283          	lhu	x5,32(x1)
400001a4:	0ff00393          	li	x7,255
400001a8:	18729863          	bne	x5,x7,40000338 <fail>

400001ac <test_11>:
400001ac:	00b00193          	li	x3,11
400001b0:	00001097          	auipc	x1,0x1
400001b4:	e5008093          	addi	x1,x1,-432 # 40001000 <_sdata>
400001b8:	ffb08093          	addi	x1,x1,-5
400001bc:	0070d283          	lhu	x5,7(x1)
400001c0:	000103b7          	lui	x7,0x10
400001c4:	f0038393          	addi	x7,x7,-256 # ff00 <_start-0x3fff0100>
400001c8:	16729863          	bne	x5,x7,40000338 <fail>

400001cc <test_12>:
400001cc:	00c00193          	li	x3,12
400001d0:	00000213          	li	x4,0
400001d4:	00001097          	auipc	x1,0x1
400001d8:	e2e08093          	addi	x1,x1,-466 # 40001002 <tdat2>
400001dc:	0020d703          	lhu	x14,2(x1)
400001e0:	00070313          	mv	x6,x14
400001e4:	000013b7          	lui	x7,0x1
400001e8:	ff038393          	addi	x7,x7,-16 # ff0 <_start-0x3ffff010>
400001ec:	14731663          	bne	x6,x7,40000338 <fail>
400001f0:	00120213          	addi	x4,x4,1 # 1 <_start-0x3fffffff>
400001f4:	00200293          	li	x5,2
400001f8:	fc521ee3          	bne	x4,x5,400001d4 <test_12+0x8>

400001fc <test_13>:
400001fc:	00d00193          	li	x3,13
40000200:	00000213          	li	x4,0
40000204:	00001097          	auipc	x1,0x1
40000208:	e0008093          	addi	x1,x1,-512 # 40001004 <tdat3>
4000020c:	0020d703          	lhu	x14,2(x1)
40000210:	00000013          	nop
40000214:	00070313          	mv	x6,x14
40000218:	0000f3b7          	lui	x7,0xf
4000021c:	00f38393          	addi	x7,x7,15 # f00f <_start-0x3fff0ff1>
40000220:	10731c63          	bne	x6,x7,40000338 <fail>
40000224:	00120213          	addi	x4,x4,1 # 1 <_start-0x3fffffff>
40000228:	00200293          	li	x5,2
4000022c:	fc521ce3          	bne	x4,x5,40000204 <test_13+0x8>

40000230 <test_14>:
40000230:	00e00193          	li	x3,14
40000234:	00000213          	li	x4,0
40000238:	00001097          	auipc	x1,0x1
4000023c:	dc808093          	addi	x1,x1,-568 # 40001000 <_sdata>
40000240:	0020d703          	lhu	x14,2(x1)
40000244:	00000013          	nop
40000248:	00000013          	nop
4000024c:	00070313          	mv	x6,x14
40000250:	000103b7          	lui	x7,0x10
40000254:	f0038393          	addi	x7,x7,-256 # ff00 <_start-0x3fff0100>
40000258:	0e731063          	bne	x6,x7,40000338 <fail>
4000025c:	00120213          	addi	x4,x4,1 # 1 <_start-0x3fffffff>
40000260:	00200293          	li	x5,2
40000264:	fc521ae3          	bne	x4,x5,40000238 <test_14+0x8>

40000268 <test_15>:
40000268:	00f00193          	li	x3,15
4000026c:	00000213          	li	x4,0
40000270:	00001097          	auipc	x1,0x1
40000274:	d9208093          	addi	x1,x1,-622 # 40001002 <tdat2>
40000278:	0020d703          	lhu	x14,2(x1)
4000027c:	000013b7          	lui	x7,0x1
40000280:	ff038393          	addi	x7,x7,-16 # ff0 <_start-0x3ffff010>
40000284:	0a771a63          	bne	x14,x7,40000338 <fail>
40000288:	00120213          	addi	x4,x4,1 # 1 <_start-0x3fffffff>
4000028c:	00200293          	li	x5,2
40000290:	fe5210e3          	bne	x4,x5,40000270 <test_15+0x8>

40000294 <test_16>:
40000294:	01000193          	li	x3,16
40000298:	00000213          	li	x4,0
4000029c:	00001097          	auipc	x1,0x1
400002a0:	d6808093          	addi	x1,x1,-664 # 40001004 <tdat3>
400002a4:	00000013          	nop
400002a8:	0020d703          	lhu	x14,2(x1)
400002ac:	0000f3b7          	lui	x7,0xf
400002b0:	00f38393          	addi	x7,x7,15 # f00f <_start-0x3fff0ff1>
400002b4:	08771263          	bne	x14,x7,40000338 <fail>
400002b8:	00120213          	addi	x4,x4,1 # 1 <_start-0x3fffffff>
400002bc:	00200293          	li	x5,2
400002c0:	fc521ee3          	bne	x4,x5,4000029c <test_16+0x8>

400002c4 <test_17>:
400002c4:	01100193          	li	x3,17
400002c8:	00000213          	li	x4,0
400002cc:	00001097          	auipc	x1,0x1
400002d0:	d3408093          	addi	x1,x1,-716 # 40001000 <_sdata>
400002d4:	00000013          	nop
400002d8:	00000013          	nop
400002dc:	0020d703          	lhu	x14,2(x1)
400002e0:	000103b7          	lui	x7,0x10
400002e4:	f0038393          	addi	x7,x7,-256 # ff00 <_start-0x3fff0100>
400002e8:	04771863          	bne	x14,x7,40000338 <fail>
400002ec:	00120213          	addi	x4,x4,1 # 1 <_start-0x3fffffff>
400002f0:	00200293          	li	x5,2
400002f4:	fc521ce3          	bne	x4,x5,400002cc <test_17+0x8>

400002f8 <test_18>:
400002f8:	01200193          	li	x3,18
400002fc:	00001297          	auipc	x5,0x1
40000300:	d0428293          	addi	x5,x5,-764 # 40001000 <_sdata>
40000304:	0002d103          	lhu	x2,0(x5)
40000308:	00200113          	li	x2,2
4000030c:	00200393          	li	x7,2
40000310:	02711463          	bne	x2,x7,40000338 <fail>

40000314 <test_19>:
40000314:	01300193          	li	x3,19
40000318:	00001297          	auipc	x5,0x1
4000031c:	ce828293          	addi	x5,x5,-792 # 40001000 <_sdata>
40000320:	0002d103          	lhu	x2,0(x5)
40000324:	00000013          	nop
40000328:	00200113          	li	x2,2
4000032c:	00200393          	li	x7,2
40000330:	00711463          	bne	x2,x7,40000338 <fail>
40000334:	00301863          	bne	x0,x3,40000344 <pass>

40000338 <fail>:
40000338:	eeeef1b7          	lui	x3,0xeeeef
4000033c:	eee18193          	addi	x3,x3,-274 # eeeeeeee <_erodata+0xaeeeddee>

40000340 <f>:
40000340:	0000006f          	j	40000340 <f>

40000344 <pass>:
40000344:	fff00193          	li	x3,-1

40000348 <p>:
40000348:	0000006f          	j	40000348 <p>
4000034c:	c0001073          	unimp
	...
