
sra.elf:     file format elf32-littleriscv


Disassembly of section .riscv.attributes:

00000000 <_ebss-0x40001000>:
   0:	1941                	.insn	2, 0x1941
   2:	0000                	.insn	2, 0x
   4:	7200                	.insn	2, 0x7200
   6:	7369                	.insn	2, 0x7369
   8:	01007663          	bgeu	x0,x16,14 <_start-0x3fffffec>
   c:	0000000f          	fence	unknown,unknown
  10:	7205                	.insn	2, 0x7205
  12:	3376                	.insn	2, 0x3376
  14:	6932                	.insn	2, 0x6932
  16:	7032                	.insn	2, 0x7032
  18:	0031                	.insn	2, 0x0031

Disassembly of section .text.init:

40000000 <_start>:
40000000:	0040006f          	j	40000004 <reset_vector>

40000004 <reset_vector>:
40000004:	00000093          	li	x1,0
40000008:	00000113          	li	x2,0
4000000c:	00000193          	li	x3,0
40000010:	00000213          	li	x4,0
40000014:	00000293          	li	x5,0
40000018:	00000313          	li	x6,0
4000001c:	00000393          	li	x7,0
40000020:	00000413          	li	x8,0
40000024:	00000493          	li	x9,0
40000028:	00000513          	li	x10,0
4000002c:	00000593          	li	x11,0
40000030:	00000613          	li	x12,0
40000034:	00000693          	li	x13,0
40000038:	00000713          	li	x14,0
4000003c:	00000793          	li	x15,0
40000040:	00000813          	li	x16,0
40000044:	00000893          	li	x17,0
40000048:	00000913          	li	x18,0
4000004c:	00000993          	li	x19,0
40000050:	00000a13          	li	x20,0
40000054:	00000a93          	li	x21,0
40000058:	00000b13          	li	x22,0
4000005c:	00000b93          	li	x23,0
40000060:	00000c13          	li	x24,0
40000064:	00000c93          	li	x25,0
40000068:	00000d13          	li	x26,0
4000006c:	00000d93          	li	x27,0
40000070:	00000e13          	li	x28,0
40000074:	00000e93          	li	x29,0
40000078:	00000f13          	li	x30,0
4000007c:	00000f93          	li	x31,0

40000080 <test_2>:
40000080:	00200193          	li	x3,2
40000084:	800000b7          	lui	x1,0x80000
40000088:	00000113          	li	x2,0
4000008c:	4020d733          	sra	x14,x1,x2
40000090:	800003b7          	lui	x7,0x80000
40000094:	58771463          	bne	x14,x7,4000061c <fail>

40000098 <test_3>:
40000098:	00300193          	li	x3,3
4000009c:	800000b7          	lui	x1,0x80000
400000a0:	00100113          	li	x2,1
400000a4:	4020d733          	sra	x14,x1,x2
400000a8:	c00003b7          	lui	x7,0xc0000
400000ac:	56771863          	bne	x14,x7,4000061c <fail>

400000b0 <test_4>:
400000b0:	00400193          	li	x3,4
400000b4:	800000b7          	lui	x1,0x80000
400000b8:	00700113          	li	x2,7
400000bc:	4020d733          	sra	x14,x1,x2
400000c0:	ff0003b7          	lui	x7,0xff000
400000c4:	54771c63          	bne	x14,x7,4000061c <fail>

400000c8 <test_5>:
400000c8:	00500193          	li	x3,5
400000cc:	800000b7          	lui	x1,0x80000
400000d0:	00e00113          	li	x2,14
400000d4:	4020d733          	sra	x14,x1,x2
400000d8:	fffe03b7          	lui	x7,0xfffe0
400000dc:	54771063          	bne	x14,x7,4000061c <fail>

400000e0 <test_6>:
400000e0:	00600193          	li	x3,6
400000e4:	800000b7          	lui	x1,0x80000
400000e8:	00108093          	addi	x1,x1,1 # 80000001 <_erodata+0x3fffef01>
400000ec:	01f00113          	li	x2,31
400000f0:	4020d733          	sra	x14,x1,x2
400000f4:	fff00393          	li	x7,-1
400000f8:	52771263          	bne	x14,x7,4000061c <fail>

400000fc <test_7>:
400000fc:	00700193          	li	x3,7
40000100:	800000b7          	lui	x1,0x80000
40000104:	fff08093          	addi	x1,x1,-1 # 7fffffff <_erodata+0x3fffeeff>
40000108:	00000113          	li	x2,0
4000010c:	4020d733          	sra	x14,x1,x2
40000110:	800003b7          	lui	x7,0x80000
40000114:	fff38393          	addi	x7,x7,-1 # 7fffffff <_erodata+0x3fffeeff>
40000118:	50771263          	bne	x14,x7,4000061c <fail>

4000011c <test_8>:
4000011c:	00800193          	li	x3,8
40000120:	800000b7          	lui	x1,0x80000
40000124:	fff08093          	addi	x1,x1,-1 # 7fffffff <_erodata+0x3fffeeff>
40000128:	00100113          	li	x2,1
4000012c:	4020d733          	sra	x14,x1,x2
40000130:	400003b7          	lui	x7,0x40000
40000134:	fff38393          	addi	x7,x7,-1 # 3fffffff <_start-0x1>
40000138:	4e771263          	bne	x14,x7,4000061c <fail>

4000013c <test_9>:
4000013c:	00900193          	li	x3,9
40000140:	800000b7          	lui	x1,0x80000
40000144:	fff08093          	addi	x1,x1,-1 # 7fffffff <_erodata+0x3fffeeff>
40000148:	00700113          	li	x2,7
4000014c:	4020d733          	sra	x14,x1,x2
40000150:	010003b7          	lui	x7,0x1000
40000154:	fff38393          	addi	x7,x7,-1 # ffffff <_start-0x3f000001>
40000158:	4c771263          	bne	x14,x7,4000061c <fail>

4000015c <test_10>:
4000015c:	00a00193          	li	x3,10
40000160:	800000b7          	lui	x1,0x80000
40000164:	fff08093          	addi	x1,x1,-1 # 7fffffff <_erodata+0x3fffeeff>
40000168:	00e00113          	li	x2,14
4000016c:	4020d733          	sra	x14,x1,x2
40000170:	000203b7          	lui	x7,0x20
40000174:	fff38393          	addi	x7,x7,-1 # 1ffff <_start-0x3ffe0001>
40000178:	4a771263          	bne	x14,x7,4000061c <fail>

4000017c <test_11>:
4000017c:	00b00193          	li	x3,11
40000180:	800000b7          	lui	x1,0x80000
40000184:	fff08093          	addi	x1,x1,-1 # 7fffffff <_erodata+0x3fffeeff>
40000188:	01f00113          	li	x2,31
4000018c:	4020d733          	sra	x14,x1,x2
40000190:	00000393          	li	x7,0
40000194:	48771463          	bne	x14,x7,4000061c <fail>

40000198 <test_12>:
40000198:	00c00193          	li	x3,12
4000019c:	818180b7          	lui	x1,0x81818
400001a0:	18108093          	addi	x1,x1,385 # 81818181 <_erodata+0x41817081>
400001a4:	00000113          	li	x2,0
400001a8:	4020d733          	sra	x14,x1,x2
400001ac:	818183b7          	lui	x7,0x81818
400001b0:	18138393          	addi	x7,x7,385 # 81818181 <_erodata+0x41817081>
400001b4:	46771463          	bne	x14,x7,4000061c <fail>

400001b8 <test_13>:
400001b8:	00d00193          	li	x3,13
400001bc:	818180b7          	lui	x1,0x81818
400001c0:	18108093          	addi	x1,x1,385 # 81818181 <_erodata+0x41817081>
400001c4:	00100113          	li	x2,1
400001c8:	4020d733          	sra	x14,x1,x2
400001cc:	c0c0c3b7          	lui	x7,0xc0c0c
400001d0:	0c038393          	addi	x7,x7,192 # c0c0c0c0 <_erodata+0x80c0afc0>
400001d4:	44771463          	bne	x14,x7,4000061c <fail>

400001d8 <test_14>:
400001d8:	00e00193          	li	x3,14
400001dc:	818180b7          	lui	x1,0x81818
400001e0:	18108093          	addi	x1,x1,385 # 81818181 <_erodata+0x41817081>
400001e4:	00700113          	li	x2,7
400001e8:	4020d733          	sra	x14,x1,x2
400001ec:	ff0303b7          	lui	x7,0xff030
400001f0:	30338393          	addi	x7,x7,771 # ff030303 <_erodata+0xbf02f203>
400001f4:	42771463          	bne	x14,x7,4000061c <fail>

400001f8 <test_15>:
400001f8:	00f00193          	li	x3,15
400001fc:	818180b7          	lui	x1,0x81818
40000200:	18108093          	addi	x1,x1,385 # 81818181 <_erodata+0x41817081>
40000204:	00e00113          	li	x2,14
40000208:	4020d733          	sra	x14,x1,x2
4000020c:	fffe03b7          	lui	x7,0xfffe0
40000210:	60638393          	addi	x7,x7,1542 # fffe0606 <_erodata+0xbffdf506>
40000214:	40771463          	bne	x14,x7,4000061c <fail>

40000218 <test_16>:
40000218:	01000193          	li	x3,16
4000021c:	818180b7          	lui	x1,0x81818
40000220:	18108093          	addi	x1,x1,385 # 81818181 <_erodata+0x41817081>
40000224:	01f00113          	li	x2,31
40000228:	4020d733          	sra	x14,x1,x2
4000022c:	fff00393          	li	x7,-1
40000230:	3e771663          	bne	x14,x7,4000061c <fail>

40000234 <test_17>:
40000234:	01100193          	li	x3,17
40000238:	818180b7          	lui	x1,0x81818
4000023c:	18108093          	addi	x1,x1,385 # 81818181 <_erodata+0x41817081>
40000240:	fc000113          	li	x2,-64
40000244:	4020d733          	sra	x14,x1,x2
40000248:	818183b7          	lui	x7,0x81818
4000024c:	18138393          	addi	x7,x7,385 # 81818181 <_erodata+0x41817081>
40000250:	3c771663          	bne	x14,x7,4000061c <fail>

40000254 <test_18>:
40000254:	01200193          	li	x3,18
40000258:	818180b7          	lui	x1,0x81818
4000025c:	18108093          	addi	x1,x1,385 # 81818181 <_erodata+0x41817081>
40000260:	fc100113          	li	x2,-63
40000264:	4020d733          	sra	x14,x1,x2
40000268:	c0c0c3b7          	lui	x7,0xc0c0c
4000026c:	0c038393          	addi	x7,x7,192 # c0c0c0c0 <_erodata+0x80c0afc0>
40000270:	3a771663          	bne	x14,x7,4000061c <fail>

40000274 <test_19>:
40000274:	01300193          	li	x3,19
40000278:	818180b7          	lui	x1,0x81818
4000027c:	18108093          	addi	x1,x1,385 # 81818181 <_erodata+0x41817081>
40000280:	fc700113          	li	x2,-57
40000284:	4020d733          	sra	x14,x1,x2
40000288:	ff0303b7          	lui	x7,0xff030
4000028c:	30338393          	addi	x7,x7,771 # ff030303 <_erodata+0xbf02f203>
40000290:	38771663          	bne	x14,x7,4000061c <fail>

40000294 <test_20>:
40000294:	01400193          	li	x3,20
40000298:	818180b7          	lui	x1,0x81818
4000029c:	18108093          	addi	x1,x1,385 # 81818181 <_erodata+0x41817081>
400002a0:	fce00113          	li	x2,-50
400002a4:	4020d733          	sra	x14,x1,x2
400002a8:	fffe03b7          	lui	x7,0xfffe0
400002ac:	60638393          	addi	x7,x7,1542 # fffe0606 <_erodata+0xbffdf506>
400002b0:	36771663          	bne	x14,x7,4000061c <fail>

400002b4 <test_21>:
400002b4:	01500193          	li	x3,21
400002b8:	818180b7          	lui	x1,0x81818
400002bc:	18108093          	addi	x1,x1,385 # 81818181 <_erodata+0x41817081>
400002c0:	fff00113          	li	x2,-1
400002c4:	4020d733          	sra	x14,x1,x2
400002c8:	fff00393          	li	x7,-1
400002cc:	34771863          	bne	x14,x7,4000061c <fail>

400002d0 <test_22>:
400002d0:	01600193          	li	x3,22
400002d4:	800000b7          	lui	x1,0x80000
400002d8:	00700113          	li	x2,7
400002dc:	4020d0b3          	sra	x1,x1,x2
400002e0:	ff0003b7          	lui	x7,0xff000
400002e4:	32709c63          	bne	x1,x7,4000061c <fail>

400002e8 <test_23>:
400002e8:	01700193          	li	x3,23
400002ec:	800000b7          	lui	x1,0x80000
400002f0:	00e00113          	li	x2,14
400002f4:	4020d133          	sra	x2,x1,x2
400002f8:	fffe03b7          	lui	x7,0xfffe0
400002fc:	32711063          	bne	x2,x7,4000061c <fail>

40000300 <test_24>:
40000300:	01800193          	li	x3,24
40000304:	00700093          	li	x1,7
40000308:	4010d0b3          	sra	x1,x1,x1
4000030c:	00000393          	li	x7,0
40000310:	30709663          	bne	x1,x7,4000061c <fail>

40000314 <test_25>:
40000314:	01900193          	li	x3,25
40000318:	00000213          	li	x4,0
4000031c:	800000b7          	lui	x1,0x80000
40000320:	00700113          	li	x2,7
40000324:	4020d733          	sra	x14,x1,x2
40000328:	00070313          	mv	x6,x14
4000032c:	00120213          	addi	x4,x4,1 # 1 <_start-0x3fffffff>
40000330:	00200293          	li	x5,2
40000334:	fe5214e3          	bne	x4,x5,4000031c <test_25+0x8>
40000338:	ff0003b7          	lui	x7,0xff000
4000033c:	2e731063          	bne	x6,x7,4000061c <fail>

40000340 <test_26>:
40000340:	01a00193          	li	x3,26
40000344:	00000213          	li	x4,0
40000348:	800000b7          	lui	x1,0x80000
4000034c:	00e00113          	li	x2,14
40000350:	4020d733          	sra	x14,x1,x2
40000354:	00000013          	nop
40000358:	00070313          	mv	x6,x14
4000035c:	00120213          	addi	x4,x4,1 # 1 <_start-0x3fffffff>
40000360:	00200293          	li	x5,2
40000364:	fe5212e3          	bne	x4,x5,40000348 <test_26+0x8>
40000368:	fffe03b7          	lui	x7,0xfffe0
4000036c:	2a731863          	bne	x6,x7,4000061c <fail>

40000370 <test_27>:
40000370:	01b00193          	li	x3,27
40000374:	00000213          	li	x4,0
40000378:	800000b7          	lui	x1,0x80000
4000037c:	01f00113          	li	x2,31
40000380:	4020d733          	sra	x14,x1,x2
40000384:	00000013          	nop
40000388:	00000013          	nop
4000038c:	00070313          	mv	x6,x14
40000390:	00120213          	addi	x4,x4,1 # 1 <_start-0x3fffffff>
40000394:	00200293          	li	x5,2
40000398:	fe5210e3          	bne	x4,x5,40000378 <test_27+0x8>
4000039c:	fff00393          	li	x7,-1
400003a0:	26731e63          	bne	x6,x7,4000061c <fail>

400003a4 <test_28>:
400003a4:	01c00193          	li	x3,28
400003a8:	00000213          	li	x4,0
400003ac:	800000b7          	lui	x1,0x80000
400003b0:	00700113          	li	x2,7
400003b4:	4020d733          	sra	x14,x1,x2
400003b8:	00120213          	addi	x4,x4,1 # 1 <_start-0x3fffffff>
400003bc:	00200293          	li	x5,2
400003c0:	fe5216e3          	bne	x4,x5,400003ac <test_28+0x8>
400003c4:	ff0003b7          	lui	x7,0xff000
400003c8:	24771a63          	bne	x14,x7,4000061c <fail>

400003cc <test_29>:
400003cc:	01d00193          	li	x3,29
400003d0:	00000213          	li	x4,0
400003d4:	800000b7          	lui	x1,0x80000
400003d8:	00e00113          	li	x2,14
400003dc:	00000013          	nop
400003e0:	4020d733          	sra	x14,x1,x2
400003e4:	00120213          	addi	x4,x4,1 # 1 <_start-0x3fffffff>
400003e8:	00200293          	li	x5,2
400003ec:	fe5214e3          	bne	x4,x5,400003d4 <test_29+0x8>
400003f0:	fffe03b7          	lui	x7,0xfffe0
400003f4:	22771463          	bne	x14,x7,4000061c <fail>

400003f8 <test_30>:
400003f8:	01e00193          	li	x3,30
400003fc:	00000213          	li	x4,0
40000400:	800000b7          	lui	x1,0x80000
40000404:	01f00113          	li	x2,31
40000408:	00000013          	nop
4000040c:	00000013          	nop
40000410:	4020d733          	sra	x14,x1,x2
40000414:	00120213          	addi	x4,x4,1 # 1 <_start-0x3fffffff>
40000418:	00200293          	li	x5,2
4000041c:	fe5212e3          	bne	x4,x5,40000400 <test_30+0x8>
40000420:	fff00393          	li	x7,-1
40000424:	1e771c63          	bne	x14,x7,4000061c <fail>

40000428 <test_31>:
40000428:	01f00193          	li	x3,31
4000042c:	00000213          	li	x4,0
40000430:	800000b7          	lui	x1,0x80000
40000434:	00000013          	nop
40000438:	00700113          	li	x2,7
4000043c:	4020d733          	sra	x14,x1,x2
40000440:	00120213          	addi	x4,x4,1 # 1 <_start-0x3fffffff>
40000444:	00200293          	li	x5,2
40000448:	fe5214e3          	bne	x4,x5,40000430 <test_31+0x8>
4000044c:	ff0003b7          	lui	x7,0xff000
40000450:	1c771663          	bne	x14,x7,4000061c <fail>

40000454 <test_32>:
40000454:	02000193          	li	x3,32
40000458:	00000213          	li	x4,0
4000045c:	800000b7          	lui	x1,0x80000
40000460:	00000013          	nop
40000464:	00e00113          	li	x2,14
40000468:	00000013          	nop
4000046c:	4020d733          	sra	x14,x1,x2
40000470:	00120213          	addi	x4,x4,1 # 1 <_start-0x3fffffff>
40000474:	00200293          	li	x5,2
40000478:	fe5212e3          	bne	x4,x5,4000045c <test_32+0x8>
4000047c:	fffe03b7          	lui	x7,0xfffe0
40000480:	18771e63          	bne	x14,x7,4000061c <fail>

40000484 <test_33>:
40000484:	02100193          	li	x3,33
40000488:	00000213          	li	x4,0
4000048c:	800000b7          	lui	x1,0x80000
40000490:	00000013          	nop
40000494:	00000013          	nop
40000498:	01f00113          	li	x2,31
4000049c:	4020d733          	sra	x14,x1,x2
400004a0:	00120213          	addi	x4,x4,1 # 1 <_start-0x3fffffff>
400004a4:	00200293          	li	x5,2
400004a8:	fe5212e3          	bne	x4,x5,4000048c <test_33+0x8>
400004ac:	fff00393          	li	x7,-1
400004b0:	16771663          	bne	x14,x7,4000061c <fail>

400004b4 <test_34>:
400004b4:	02200193          	li	x3,34
400004b8:	00000213          	li	x4,0
400004bc:	00700113          	li	x2,7
400004c0:	800000b7          	lui	x1,0x80000
400004c4:	4020d733          	sra	x14,x1,x2
400004c8:	00120213          	addi	x4,x4,1 # 1 <_start-0x3fffffff>
400004cc:	00200293          	li	x5,2
400004d0:	fe5216e3          	bne	x4,x5,400004bc <test_34+0x8>
400004d4:	ff0003b7          	lui	x7,0xff000
400004d8:	14771263          	bne	x14,x7,4000061c <fail>

400004dc <test_35>:
400004dc:	02300193          	li	x3,35
400004e0:	00000213          	li	x4,0
400004e4:	00e00113          	li	x2,14
400004e8:	800000b7          	lui	x1,0x80000
400004ec:	00000013          	nop
400004f0:	4020d733          	sra	x14,x1,x2
400004f4:	00120213          	addi	x4,x4,1 # 1 <_start-0x3fffffff>
400004f8:	00200293          	li	x5,2
400004fc:	fe5214e3          	bne	x4,x5,400004e4 <test_35+0x8>
40000500:	fffe03b7          	lui	x7,0xfffe0
40000504:	10771c63          	bne	x14,x7,4000061c <fail>

40000508 <test_36>:
40000508:	02400193          	li	x3,36
4000050c:	00000213          	li	x4,0
40000510:	01f00113          	li	x2,31
40000514:	800000b7          	lui	x1,0x80000
40000518:	00000013          	nop
4000051c:	00000013          	nop
40000520:	4020d733          	sra	x14,x1,x2
40000524:	00120213          	addi	x4,x4,1 # 1 <_start-0x3fffffff>
40000528:	00200293          	li	x5,2
4000052c:	fe5212e3          	bne	x4,x5,40000510 <test_36+0x8>
40000530:	fff00393          	li	x7,-1
40000534:	0e771463          	bne	x14,x7,4000061c <fail>

40000538 <test_37>:
40000538:	02500193          	li	x3,37
4000053c:	00000213          	li	x4,0
40000540:	00700113          	li	x2,7
40000544:	00000013          	nop
40000548:	800000b7          	lui	x1,0x80000
4000054c:	4020d733          	sra	x14,x1,x2
40000550:	00120213          	addi	x4,x4,1 # 1 <_start-0x3fffffff>
40000554:	00200293          	li	x5,2
40000558:	fe5214e3          	bne	x4,x5,40000540 <test_37+0x8>
4000055c:	ff0003b7          	lui	x7,0xff000
40000560:	0a771e63          	bne	x14,x7,4000061c <fail>

40000564 <test_38>:
40000564:	02600193          	li	x3,38
40000568:	00000213          	li	x4,0
4000056c:	00e00113          	li	x2,14
40000570:	00000013          	nop
40000574:	800000b7          	lui	x1,0x80000
40000578:	00000013          	nop
4000057c:	4020d733          	sra	x14,x1,x2
40000580:	00120213          	addi	x4,x4,1 # 1 <_start-0x3fffffff>
40000584:	00200293          	li	x5,2
40000588:	fe5212e3          	bne	x4,x5,4000056c <test_38+0x8>
4000058c:	fffe03b7          	lui	x7,0xfffe0
40000590:	08771663          	bne	x14,x7,4000061c <fail>

40000594 <test_39>:
40000594:	02700193          	li	x3,39
40000598:	00000213          	li	x4,0
4000059c:	01f00113          	li	x2,31
400005a0:	00000013          	nop
400005a4:	00000013          	nop
400005a8:	800000b7          	lui	x1,0x80000
400005ac:	4020d733          	sra	x14,x1,x2
400005b0:	00120213          	addi	x4,x4,1 # 1 <_start-0x3fffffff>
400005b4:	00200293          	li	x5,2
400005b8:	fe5212e3          	bne	x4,x5,4000059c <test_39+0x8>
400005bc:	fff00393          	li	x7,-1
400005c0:	04771e63          	bne	x14,x7,4000061c <fail>

400005c4 <test_40>:
400005c4:	02800193          	li	x3,40
400005c8:	00f00093          	li	x1,15
400005cc:	40105133          	sra	x2,x0,x1
400005d0:	00000393          	li	x7,0
400005d4:	04711463          	bne	x2,x7,4000061c <fail>

400005d8 <test_41>:
400005d8:	02900193          	li	x3,41
400005dc:	02000093          	li	x1,32
400005e0:	4000d133          	sra	x2,x1,x0
400005e4:	02000393          	li	x7,32
400005e8:	02711a63          	bne	x2,x7,4000061c <fail>

400005ec <test_42>:
400005ec:	02a00193          	li	x3,42
400005f0:	400050b3          	sra	x1,x0,x0
400005f4:	00000393          	li	x7,0
400005f8:	02709263          	bne	x1,x7,4000061c <fail>

400005fc <test_43>:
400005fc:	02b00193          	li	x3,43
40000600:	40000093          	li	x1,1024
40000604:	00001137          	lui	x2,0x1
40000608:	80010113          	addi	x2,x2,-2048 # 800 <_start-0x3ffff800>
4000060c:	4020d033          	sra	x0,x1,x2
40000610:	00000393          	li	x7,0
40000614:	00701463          	bne	x0,x7,4000061c <fail>
40000618:	00301863          	bne	x0,x3,40000628 <pass>

4000061c <fail>:
4000061c:	eeeef1b7          	lui	x3,0xeeeef
40000620:	eee18193          	addi	x3,x3,-274 # eeeeeeee <_erodata+0xaeeeddee>

40000624 <f>:
40000624:	0000006f          	j	40000624 <f>

40000628 <pass>:
40000628:	fff00193          	li	x3,-1

4000062c <p>:
4000062c:	0000006f          	j	4000062c <p>
40000630:	c0001073          	unimp
	...
