
srli.elf:     file format elf32-littleriscv


Disassembly of section .riscv.attributes:

00000000 <_ebss-0x40001000>:
   0:	1941                	.insn	2, 0x1941
   2:	0000                	.insn	2, 0x
   4:	7200                	.insn	2, 0x7200
   6:	7369                	.insn	2, 0x7369
   8:	01007663          	bgeu	x0,x16,14 <_start-0x3fffffec>
   c:	0000000f          	fence	unknown,unknown
  10:	7205                	.insn	2, 0x7205
  12:	3376                	.insn	2, 0x3376
  14:	6932                	.insn	2, 0x6932
  16:	7032                	.insn	2, 0x7032
  18:	0031                	.insn	2, 0x0031

Disassembly of section .text.init:

40000000 <_start>:
40000000:	0040006f          	j	40000004 <reset_vector>

40000004 <reset_vector>:
40000004:	00000093          	li	x1,0
40000008:	00000113          	li	x2,0
4000000c:	00000193          	li	x3,0
40000010:	00000213          	li	x4,0
40000014:	00000293          	li	x5,0
40000018:	00000313          	li	x6,0
4000001c:	00000393          	li	x7,0
40000020:	00000413          	li	x8,0
40000024:	00000493          	li	x9,0
40000028:	00000513          	li	x10,0
4000002c:	00000593          	li	x11,0
40000030:	00000613          	li	x12,0
40000034:	00000693          	li	x13,0
40000038:	00000713          	li	x14,0
4000003c:	00000793          	li	x15,0
40000040:	00000813          	li	x16,0
40000044:	00000893          	li	x17,0
40000048:	00000913          	li	x18,0
4000004c:	00000993          	li	x19,0
40000050:	00000a13          	li	x20,0
40000054:	00000a93          	li	x21,0
40000058:	00000b13          	li	x22,0
4000005c:	00000b93          	li	x23,0
40000060:	00000c13          	li	x24,0
40000064:	00000c93          	li	x25,0
40000068:	00000d13          	li	x26,0
4000006c:	00000d93          	li	x27,0
40000070:	00000e13          	li	x28,0
40000074:	00000e93          	li	x29,0
40000078:	00000f13          	li	x30,0
4000007c:	00000f93          	li	x31,0

40000080 <test_2>:
40000080:	00200193          	li	x3,2
40000084:	800000b7          	lui	x1,0x80000
40000088:	0000d713          	srli	x14,x1,0x0
4000008c:	800003b7          	lui	x7,0x80000
40000090:	28771863          	bne	x14,x7,40000320 <fail>

40000094 <test_3>:
40000094:	00300193          	li	x3,3
40000098:	800000b7          	lui	x1,0x80000
4000009c:	0010d713          	srli	x14,x1,0x1
400000a0:	400003b7          	lui	x7,0x40000
400000a4:	26771e63          	bne	x14,x7,40000320 <fail>

400000a8 <test_4>:
400000a8:	00400193          	li	x3,4
400000ac:	800000b7          	lui	x1,0x80000
400000b0:	0070d713          	srli	x14,x1,0x7
400000b4:	010003b7          	lui	x7,0x1000
400000b8:	26771463          	bne	x14,x7,40000320 <fail>

400000bc <test_5>:
400000bc:	00500193          	li	x3,5
400000c0:	800000b7          	lui	x1,0x80000
400000c4:	00e0d713          	srli	x14,x1,0xe
400000c8:	000203b7          	lui	x7,0x20
400000cc:	24771a63          	bne	x14,x7,40000320 <fail>

400000d0 <test_6>:
400000d0:	00600193          	li	x3,6
400000d4:	800000b7          	lui	x1,0x80000
400000d8:	00108093          	addi	x1,x1,1 # 80000001 <_erodata+0x3fffef01>
400000dc:	01f0d713          	srli	x14,x1,0x1f
400000e0:	00100393          	li	x7,1
400000e4:	22771e63          	bne	x14,x7,40000320 <fail>

400000e8 <test_7>:
400000e8:	00700193          	li	x3,7
400000ec:	fff00093          	li	x1,-1
400000f0:	0000d713          	srli	x14,x1,0x0
400000f4:	fff00393          	li	x7,-1
400000f8:	22771463          	bne	x14,x7,40000320 <fail>

400000fc <test_8>:
400000fc:	00800193          	li	x3,8
40000100:	fff00093          	li	x1,-1
40000104:	0010d713          	srli	x14,x1,0x1
40000108:	800003b7          	lui	x7,0x80000
4000010c:	fff38393          	addi	x7,x7,-1 # 7fffffff <_erodata+0x3fffeeff>
40000110:	20771863          	bne	x14,x7,40000320 <fail>

40000114 <test_9>:
40000114:	00900193          	li	x3,9
40000118:	fff00093          	li	x1,-1
4000011c:	0070d713          	srli	x14,x1,0x7
40000120:	020003b7          	lui	x7,0x2000
40000124:	fff38393          	addi	x7,x7,-1 # 1ffffff <_start-0x3e000001>
40000128:	1e771c63          	bne	x14,x7,40000320 <fail>

4000012c <test_10>:
4000012c:	00a00193          	li	x3,10
40000130:	fff00093          	li	x1,-1
40000134:	00e0d713          	srli	x14,x1,0xe
40000138:	000403b7          	lui	x7,0x40
4000013c:	fff38393          	addi	x7,x7,-1 # 3ffff <_start-0x3ffc0001>
40000140:	1e771063          	bne	x14,x7,40000320 <fail>

40000144 <test_11>:
40000144:	00b00193          	li	x3,11
40000148:	fff00093          	li	x1,-1
4000014c:	01f0d713          	srli	x14,x1,0x1f
40000150:	00100393          	li	x7,1
40000154:	1c771663          	bne	x14,x7,40000320 <fail>

40000158 <test_12>:
40000158:	00c00193          	li	x3,12
4000015c:	212120b7          	lui	x1,0x21212
40000160:	12108093          	addi	x1,x1,289 # 21212121 <_start-0x1edededf>
40000164:	0000d713          	srli	x14,x1,0x0
40000168:	212123b7          	lui	x7,0x21212
4000016c:	12138393          	addi	x7,x7,289 # 21212121 <_start-0x1edededf>
40000170:	1a771863          	bne	x14,x7,40000320 <fail>

40000174 <test_13>:
40000174:	00d00193          	li	x3,13
40000178:	212120b7          	lui	x1,0x21212
4000017c:	12108093          	addi	x1,x1,289 # 21212121 <_start-0x1edededf>
40000180:	0010d713          	srli	x14,x1,0x1
40000184:	109093b7          	lui	x7,0x10909
40000188:	09038393          	addi	x7,x7,144 # 10909090 <_start-0x2f6f6f70>
4000018c:	18771a63          	bne	x14,x7,40000320 <fail>

40000190 <test_14>:
40000190:	00e00193          	li	x3,14
40000194:	212120b7          	lui	x1,0x21212
40000198:	12108093          	addi	x1,x1,289 # 21212121 <_start-0x1edededf>
4000019c:	0070d713          	srli	x14,x1,0x7
400001a0:	004243b7          	lui	x7,0x424
400001a4:	24238393          	addi	x7,x7,578 # 424242 <_start-0x3fbdbdbe>
400001a8:	16771c63          	bne	x14,x7,40000320 <fail>

400001ac <test_15>:
400001ac:	00f00193          	li	x3,15
400001b0:	212120b7          	lui	x1,0x21212
400001b4:	12108093          	addi	x1,x1,289 # 21212121 <_start-0x1edededf>
400001b8:	00e0d713          	srli	x14,x1,0xe
400001bc:	000083b7          	lui	x7,0x8
400001c0:	48438393          	addi	x7,x7,1156 # 8484 <_start-0x3fff7b7c>
400001c4:	14771e63          	bne	x14,x7,40000320 <fail>

400001c8 <test_16>:
400001c8:	01000193          	li	x3,16
400001cc:	212120b7          	lui	x1,0x21212
400001d0:	12108093          	addi	x1,x1,289 # 21212121 <_start-0x1edededf>
400001d4:	01f0d713          	srli	x14,x1,0x1f
400001d8:	00000393          	li	x7,0
400001dc:	14771263          	bne	x14,x7,40000320 <fail>

400001e0 <test_17>:
400001e0:	01100193          	li	x3,17
400001e4:	800000b7          	lui	x1,0x80000
400001e8:	0070d093          	srli	x1,x1,0x7
400001ec:	010003b7          	lui	x7,0x1000
400001f0:	12709863          	bne	x1,x7,40000320 <fail>

400001f4 <test_18>:
400001f4:	01200193          	li	x3,18
400001f8:	00000213          	li	x4,0
400001fc:	800000b7          	lui	x1,0x80000
40000200:	0070d713          	srli	x14,x1,0x7
40000204:	00070313          	mv	x6,x14
40000208:	00120213          	addi	x4,x4,1 # 1 <_start-0x3fffffff>
4000020c:	00200293          	li	x5,2
40000210:	fe5216e3          	bne	x4,x5,400001fc <test_18+0x8>
40000214:	010003b7          	lui	x7,0x1000
40000218:	10731463          	bne	x6,x7,40000320 <fail>

4000021c <test_19>:
4000021c:	01300193          	li	x3,19
40000220:	00000213          	li	x4,0
40000224:	800000b7          	lui	x1,0x80000
40000228:	00e0d713          	srli	x14,x1,0xe
4000022c:	00000013          	nop
40000230:	00070313          	mv	x6,x14
40000234:	00120213          	addi	x4,x4,1 # 1 <_start-0x3fffffff>
40000238:	00200293          	li	x5,2
4000023c:	fe5214e3          	bne	x4,x5,40000224 <test_19+0x8>
40000240:	000203b7          	lui	x7,0x20
40000244:	0c731e63          	bne	x6,x7,40000320 <fail>

40000248 <test_20>:
40000248:	01400193          	li	x3,20
4000024c:	00000213          	li	x4,0
40000250:	800000b7          	lui	x1,0x80000
40000254:	00108093          	addi	x1,x1,1 # 80000001 <_erodata+0x3fffef01>
40000258:	01f0d713          	srli	x14,x1,0x1f
4000025c:	00000013          	nop
40000260:	00000013          	nop
40000264:	00070313          	mv	x6,x14
40000268:	00120213          	addi	x4,x4,1 # 1 <_start-0x3fffffff>
4000026c:	00200293          	li	x5,2
40000270:	fe5210e3          	bne	x4,x5,40000250 <test_20+0x8>
40000274:	00100393          	li	x7,1
40000278:	0a731463          	bne	x6,x7,40000320 <fail>

4000027c <test_21>:
4000027c:	01500193          	li	x3,21
40000280:	00000213          	li	x4,0
40000284:	800000b7          	lui	x1,0x80000
40000288:	0070d713          	srli	x14,x1,0x7
4000028c:	00120213          	addi	x4,x4,1 # 1 <_start-0x3fffffff>
40000290:	00200293          	li	x5,2
40000294:	fe5218e3          	bne	x4,x5,40000284 <test_21+0x8>
40000298:	010003b7          	lui	x7,0x1000
4000029c:	08771263          	bne	x14,x7,40000320 <fail>

400002a0 <test_22>:
400002a0:	01600193          	li	x3,22
400002a4:	00000213          	li	x4,0
400002a8:	800000b7          	lui	x1,0x80000
400002ac:	00000013          	nop
400002b0:	00e0d713          	srli	x14,x1,0xe
400002b4:	00120213          	addi	x4,x4,1 # 1 <_start-0x3fffffff>
400002b8:	00200293          	li	x5,2
400002bc:	fe5216e3          	bne	x4,x5,400002a8 <test_22+0x8>
400002c0:	000203b7          	lui	x7,0x20
400002c4:	04771e63          	bne	x14,x7,40000320 <fail>

400002c8 <test_23>:
400002c8:	01700193          	li	x3,23
400002cc:	00000213          	li	x4,0
400002d0:	800000b7          	lui	x1,0x80000
400002d4:	00108093          	addi	x1,x1,1 # 80000001 <_erodata+0x3fffef01>
400002d8:	00000013          	nop
400002dc:	00000013          	nop
400002e0:	01f0d713          	srli	x14,x1,0x1f
400002e4:	00120213          	addi	x4,x4,1 # 1 <_start-0x3fffffff>
400002e8:	00200293          	li	x5,2
400002ec:	fe5212e3          	bne	x4,x5,400002d0 <test_23+0x8>
400002f0:	00100393          	li	x7,1
400002f4:	02771663          	bne	x14,x7,40000320 <fail>

400002f8 <test_24>:
400002f8:	01800193          	li	x3,24
400002fc:	00405093          	srli	x1,x0,0x4
40000300:	00000393          	li	x7,0
40000304:	00709e63          	bne	x1,x7,40000320 <fail>

40000308 <test_25>:
40000308:	01900193          	li	x3,25
4000030c:	02100093          	li	x1,33
40000310:	00a0d013          	srli	x0,x1,0xa
40000314:	00000393          	li	x7,0
40000318:	00701463          	bne	x0,x7,40000320 <fail>
4000031c:	00301863          	bne	x0,x3,4000032c <pass>

40000320 <fail>:
40000320:	eeeef1b7          	lui	x3,0xeeeef
40000324:	eee18193          	addi	x3,x3,-274 # eeeeeeee <_erodata+0xaeeeddee>

40000328 <f>:
40000328:	0000006f          	j	40000328 <f>

4000032c <pass>:
4000032c:	fff00193          	li	x3,-1

40000330 <p>:
40000330:	0000006f          	j	40000330 <p>
40000334:	c0001073          	unimp
	...
