
sw.elf:     file format elf32-littleriscv


Disassembly of section .data:

400005d0 <begin_signature>:
400005d0:	deadbeef          	jal	x29,3ffdbbba <_start-0x24446>

400005d4 <tdat2>:
400005d4:	deadbeef          	jal	x29,3ffdbbbe <_start-0x24442>

400005d8 <tdat3>:
400005d8:	deadbeef          	jal	x29,3ffdbbc2 <_start-0x2443e>

400005dc <tdat4>:
400005dc:	deadbeef          	jal	x29,3ffdbbc6 <_start-0x2443a>

400005e0 <tdat5>:
400005e0:	deadbeef          	jal	x29,3ffdbbca <_start-0x24436>

400005e4 <tdat6>:
400005e4:	deadbeef          	jal	x29,3ffdbbce <_start-0x24432>

400005e8 <tdat7>:
400005e8:	deadbeef          	jal	x29,3ffdbbd2 <_start-0x2442e>

400005ec <tdat8>:
400005ec:	deadbeef          	jal	x29,3ffdbbd6 <_start-0x2442a>

400005f0 <tdat9>:
400005f0:	deadbeef          	jal	x29,3ffdbbda <_start-0x24426>

400005f4 <tdat10>:
400005f4:	deadbeef          	jal	x29,3ffdbbde <_start-0x24422>
	...

Disassembly of section .riscv.attributes:

00000000 <.riscv.attributes>:
   0:	1941                	.insn	2, 0x1941
   2:	0000                	.insn	2, 0x
   4:	7200                	.insn	2, 0x7200
   6:	7369                	.insn	2, 0x7369
   8:	01007663          	bgeu	x0,x16,14 <_start-0x3fffffec>
   c:	0000000f          	fence	unknown,unknown
  10:	7205                	.insn	2, 0x7205
  12:	3376                	.insn	2, 0x3376
  14:	6932                	.insn	2, 0x6932
  16:	7032                	.insn	2, 0x7032
  18:	0031                	.insn	2, 0x0031

Disassembly of section .text.init:

40000000 <_start>:
40000000:	0040006f          	j	40000004 <reset_vector>

40000004 <reset_vector>:
40000004:	00000093          	li	x1,0
40000008:	00000113          	li	x2,0
4000000c:	00000193          	li	x3,0
40000010:	00000213          	li	x4,0
40000014:	00000293          	li	x5,0
40000018:	00000313          	li	x6,0
4000001c:	00000393          	li	x7,0
40000020:	00000413          	li	x8,0
40000024:	00000493          	li	x9,0
40000028:	00000513          	li	x10,0
4000002c:	00000593          	li	x11,0
40000030:	00000613          	li	x12,0
40000034:	00000693          	li	x13,0
40000038:	00000713          	li	x14,0
4000003c:	00000793          	li	x15,0
40000040:	00000813          	li	x16,0
40000044:	00000893          	li	x17,0
40000048:	00000913          	li	x18,0
4000004c:	00000993          	li	x19,0
40000050:	00000a13          	li	x20,0
40000054:	00000a93          	li	x21,0
40000058:	00000b13          	li	x22,0
4000005c:	00000b93          	li	x23,0
40000060:	00000c13          	li	x24,0
40000064:	00000c93          	li	x25,0
40000068:	00000d13          	li	x26,0
4000006c:	00000d93          	li	x27,0
40000070:	00000e13          	li	x28,0
40000074:	00000e93          	li	x29,0
40000078:	00000f13          	li	x30,0
4000007c:	00000f93          	li	x31,0

40000080 <test_2>:
40000080:	00200193          	li	x3,2
40000084:	00000097          	auipc	x1,0x0
40000088:	54c08093          	addi	x1,x1,1356 # 400005d0 <begin_signature>
4000008c:	00aa0137          	lui	x2,0xaa0
40000090:	0aa10113          	addi	x2,x2,170 # aa00aa <_start-0x3f55ff56>
40000094:	00000797          	auipc	x15,0x0
40000098:	01478793          	addi	x15,x15,20 # 400000a8 <test_2+0x28>
4000009c:	0020a023          	sw	x2,0(x1)
400000a0:	0000a703          	lw	x14,0(x1)
400000a4:	0080006f          	j	400000ac <test_2+0x2c>
400000a8:	00010713          	mv	x14,x2
400000ac:	00aa03b7          	lui	x7,0xaa0
400000b0:	0aa38393          	addi	x7,x7,170 # aa00aa <_start-0x3f55ff56>
400000b4:	4c771863          	bne	x14,x7,40000584 <fail>

400000b8 <test_3>:
400000b8:	00300193          	li	x3,3
400000bc:	00000097          	auipc	x1,0x0
400000c0:	51408093          	addi	x1,x1,1300 # 400005d0 <begin_signature>
400000c4:	aa00b137          	lui	x2,0xaa00b
400000c8:	a0010113          	addi	x2,x2,-1536 # aa00aa00 <end_signature+0x6a00a400>
400000cc:	00000797          	auipc	x15,0x0
400000d0:	01478793          	addi	x15,x15,20 # 400000e0 <test_3+0x28>
400000d4:	0020a223          	sw	x2,4(x1)
400000d8:	0040a703          	lw	x14,4(x1)
400000dc:	0080006f          	j	400000e4 <test_3+0x2c>
400000e0:	00010713          	mv	x14,x2
400000e4:	aa00b3b7          	lui	x7,0xaa00b
400000e8:	a0038393          	addi	x7,x7,-1536 # aa00aa00 <end_signature+0x6a00a400>
400000ec:	48771c63          	bne	x14,x7,40000584 <fail>

400000f0 <test_4>:
400000f0:	00400193          	li	x3,4
400000f4:	00000097          	auipc	x1,0x0
400000f8:	4dc08093          	addi	x1,x1,1244 # 400005d0 <begin_signature>
400000fc:	0aa01137          	lui	x2,0xaa01
40000100:	aa010113          	addi	x2,x2,-1376 # aa00aa0 <_start-0x355ff560>
40000104:	00000797          	auipc	x15,0x0
40000108:	01478793          	addi	x15,x15,20 # 40000118 <test_4+0x28>
4000010c:	0020a423          	sw	x2,8(x1)
40000110:	0080a703          	lw	x14,8(x1)
40000114:	0080006f          	j	4000011c <test_4+0x2c>
40000118:	00010713          	mv	x14,x2
4000011c:	0aa013b7          	lui	x7,0xaa01
40000120:	aa038393          	addi	x7,x7,-1376 # aa00aa0 <_start-0x355ff560>
40000124:	46771063          	bne	x14,x7,40000584 <fail>

40000128 <test_5>:
40000128:	00500193          	li	x3,5
4000012c:	00000097          	auipc	x1,0x0
40000130:	4a408093          	addi	x1,x1,1188 # 400005d0 <begin_signature>
40000134:	a00aa137          	lui	x2,0xa00aa
40000138:	00a10113          	addi	x2,x2,10 # a00aa00a <end_signature+0x600a9a0a>
4000013c:	00000797          	auipc	x15,0x0
40000140:	01478793          	addi	x15,x15,20 # 40000150 <test_5+0x28>
40000144:	0020a623          	sw	x2,12(x1)
40000148:	00c0a703          	lw	x14,12(x1)
4000014c:	0080006f          	j	40000154 <test_5+0x2c>
40000150:	00010713          	mv	x14,x2
40000154:	a00aa3b7          	lui	x7,0xa00aa
40000158:	00a38393          	addi	x7,x7,10 # a00aa00a <end_signature+0x600a9a0a>
4000015c:	42771463          	bne	x14,x7,40000584 <fail>

40000160 <test_6>:
40000160:	00600193          	li	x3,6
40000164:	00000097          	auipc	x1,0x0
40000168:	48808093          	addi	x1,x1,1160 # 400005ec <tdat8>
4000016c:	00aa0137          	lui	x2,0xaa0
40000170:	0aa10113          	addi	x2,x2,170 # aa00aa <_start-0x3f55ff56>
40000174:	00000797          	auipc	x15,0x0
40000178:	01478793          	addi	x15,x15,20 # 40000188 <test_6+0x28>
4000017c:	fe20aa23          	sw	x2,-12(x1)
40000180:	ff40a703          	lw	x14,-12(x1)
40000184:	0080006f          	j	4000018c <test_6+0x2c>
40000188:	00010713          	mv	x14,x2
4000018c:	00aa03b7          	lui	x7,0xaa0
40000190:	0aa38393          	addi	x7,x7,170 # aa00aa <_start-0x3f55ff56>
40000194:	3e771863          	bne	x14,x7,40000584 <fail>

40000198 <test_7>:
40000198:	00700193          	li	x3,7
4000019c:	00000097          	auipc	x1,0x0
400001a0:	45008093          	addi	x1,x1,1104 # 400005ec <tdat8>
400001a4:	aa00b137          	lui	x2,0xaa00b
400001a8:	a0010113          	addi	x2,x2,-1536 # aa00aa00 <end_signature+0x6a00a400>
400001ac:	00000797          	auipc	x15,0x0
400001b0:	01478793          	addi	x15,x15,20 # 400001c0 <test_7+0x28>
400001b4:	fe20ac23          	sw	x2,-8(x1)
400001b8:	ff80a703          	lw	x14,-8(x1)
400001bc:	0080006f          	j	400001c4 <test_7+0x2c>
400001c0:	00010713          	mv	x14,x2
400001c4:	aa00b3b7          	lui	x7,0xaa00b
400001c8:	a0038393          	addi	x7,x7,-1536 # aa00aa00 <end_signature+0x6a00a400>
400001cc:	3a771c63          	bne	x14,x7,40000584 <fail>

400001d0 <test_8>:
400001d0:	00800193          	li	x3,8
400001d4:	00000097          	auipc	x1,0x0
400001d8:	41808093          	addi	x1,x1,1048 # 400005ec <tdat8>
400001dc:	0aa01137          	lui	x2,0xaa01
400001e0:	aa010113          	addi	x2,x2,-1376 # aa00aa0 <_start-0x355ff560>
400001e4:	00000797          	auipc	x15,0x0
400001e8:	01478793          	addi	x15,x15,20 # 400001f8 <test_8+0x28>
400001ec:	fe20ae23          	sw	x2,-4(x1)
400001f0:	ffc0a703          	lw	x14,-4(x1)
400001f4:	0080006f          	j	400001fc <test_8+0x2c>
400001f8:	00010713          	mv	x14,x2
400001fc:	0aa013b7          	lui	x7,0xaa01
40000200:	aa038393          	addi	x7,x7,-1376 # aa00aa0 <_start-0x355ff560>
40000204:	38771063          	bne	x14,x7,40000584 <fail>

40000208 <test_9>:
40000208:	00900193          	li	x3,9
4000020c:	00000097          	auipc	x1,0x0
40000210:	3e008093          	addi	x1,x1,992 # 400005ec <tdat8>
40000214:	a00aa137          	lui	x2,0xa00aa
40000218:	00a10113          	addi	x2,x2,10 # a00aa00a <end_signature+0x600a9a0a>
4000021c:	00000797          	auipc	x15,0x0
40000220:	01478793          	addi	x15,x15,20 # 40000230 <test_9+0x28>
40000224:	0020a023          	sw	x2,0(x1)
40000228:	0000a703          	lw	x14,0(x1)
4000022c:	0080006f          	j	40000234 <test_9+0x2c>
40000230:	00010713          	mv	x14,x2
40000234:	a00aa3b7          	lui	x7,0xa00aa
40000238:	00a38393          	addi	x7,x7,10 # a00aa00a <end_signature+0x600a9a0a>
4000023c:	34771463          	bne	x14,x7,40000584 <fail>

40000240 <test_10>:
40000240:	00a00193          	li	x3,10
40000244:	00000097          	auipc	x1,0x0
40000248:	3ac08093          	addi	x1,x1,940 # 400005f0 <tdat9>
4000024c:	12345137          	lui	x2,0x12345
40000250:	67810113          	addi	x2,x2,1656 # 12345678 <_start-0x2dcba988>
40000254:	fe008213          	addi	x4,x1,-32
40000258:	02222023          	sw	x2,32(x4) # 20 <_start-0x3fffffe0>
4000025c:	0000a283          	lw	x5,0(x1)
40000260:	123453b7          	lui	x7,0x12345
40000264:	67838393          	addi	x7,x7,1656 # 12345678 <_start-0x2dcba988>
40000268:	30729e63          	bne	x5,x7,40000584 <fail>

4000026c <test_11>:
4000026c:	00b00193          	li	x3,11
40000270:	00000097          	auipc	x1,0x0
40000274:	38008093          	addi	x1,x1,896 # 400005f0 <tdat9>
40000278:	58213137          	lui	x2,0x58213
4000027c:	09810113          	addi	x2,x2,152 # 58213098 <end_signature+0x18212a98>
40000280:	ffd08093          	addi	x1,x1,-3
40000284:	0020a3a3          	sw	x2,7(x1)
40000288:	00000217          	auipc	x4,0x0
4000028c:	36c20213          	addi	x4,x4,876 # 400005f4 <tdat10>
40000290:	00022283          	lw	x5,0(x4) # 0 <_start-0x40000000>
40000294:	582133b7          	lui	x7,0x58213
40000298:	09838393          	addi	x7,x7,152 # 58213098 <end_signature+0x18212a98>
4000029c:	2e729463          	bne	x5,x7,40000584 <fail>

400002a0 <test_12>:
400002a0:	00c00193          	li	x3,12
400002a4:	00000213          	li	x4,0
400002a8:	aabbd0b7          	lui	x1,0xaabbd
400002ac:	cdd08093          	addi	x1,x1,-803 # aabbccdd <end_signature+0x6abbc6dd>
400002b0:	00000117          	auipc	x2,0x0
400002b4:	32010113          	addi	x2,x2,800 # 400005d0 <begin_signature>
400002b8:	00112023          	sw	x1,0(x2)
400002bc:	00012703          	lw	x14,0(x2)
400002c0:	aabbd3b7          	lui	x7,0xaabbd
400002c4:	cdd38393          	addi	x7,x7,-803 # aabbccdd <end_signature+0x6abbc6dd>
400002c8:	2a771e63          	bne	x14,x7,40000584 <fail>
400002cc:	00120213          	addi	x4,x4,1 # 1 <_start-0x3fffffff>
400002d0:	00200293          	li	x5,2
400002d4:	fc521ae3          	bne	x4,x5,400002a8 <test_12+0x8>

400002d8 <test_13>:
400002d8:	00d00193          	li	x3,13
400002dc:	00000213          	li	x4,0
400002e0:	daabc0b7          	lui	x1,0xdaabc
400002e4:	ccd08093          	addi	x1,x1,-819 # daabbccd <end_signature+0x9aabb6cd>
400002e8:	00000117          	auipc	x2,0x0
400002ec:	2e810113          	addi	x2,x2,744 # 400005d0 <begin_signature>
400002f0:	00000013          	nop
400002f4:	00112223          	sw	x1,4(x2)
400002f8:	00412703          	lw	x14,4(x2)
400002fc:	daabc3b7          	lui	x7,0xdaabc
40000300:	ccd38393          	addi	x7,x7,-819 # daabbccd <end_signature+0x9aabb6cd>
40000304:	28771063          	bne	x14,x7,40000584 <fail>
40000308:	00120213          	addi	x4,x4,1 # 1 <_start-0x3fffffff>
4000030c:	00200293          	li	x5,2
40000310:	fc5218e3          	bne	x4,x5,400002e0 <test_13+0x8>

40000314 <test_14>:
40000314:	00e00193          	li	x3,14
40000318:	00000213          	li	x4,0
4000031c:	ddaac0b7          	lui	x1,0xddaac
40000320:	bcc08093          	addi	x1,x1,-1076 # ddaabbcc <end_signature+0x9daab5cc>
40000324:	00000117          	auipc	x2,0x0
40000328:	2ac10113          	addi	x2,x2,684 # 400005d0 <begin_signature>
4000032c:	00000013          	nop
40000330:	00000013          	nop
40000334:	00112423          	sw	x1,8(x2)
40000338:	00812703          	lw	x14,8(x2)
4000033c:	ddaac3b7          	lui	x7,0xddaac
40000340:	bcc38393          	addi	x7,x7,-1076 # ddaabbcc <end_signature+0x9daab5cc>
40000344:	24771063          	bne	x14,x7,40000584 <fail>
40000348:	00120213          	addi	x4,x4,1 # 1 <_start-0x3fffffff>
4000034c:	00200293          	li	x5,2
40000350:	fc5216e3          	bne	x4,x5,4000031c <test_14+0x8>

40000354 <test_15>:
40000354:	00f00193          	li	x3,15
40000358:	00000213          	li	x4,0
4000035c:	cddab0b7          	lui	x1,0xcddab
40000360:	bbc08093          	addi	x1,x1,-1092 # cddaabbc <end_signature+0x8ddaa5bc>
40000364:	00000013          	nop
40000368:	00000117          	auipc	x2,0x0
4000036c:	26810113          	addi	x2,x2,616 # 400005d0 <begin_signature>
40000370:	00112623          	sw	x1,12(x2)
40000374:	00c12703          	lw	x14,12(x2)
40000378:	cddab3b7          	lui	x7,0xcddab
4000037c:	bbc38393          	addi	x7,x7,-1092 # cddaabbc <end_signature+0x8ddaa5bc>
40000380:	20771263          	bne	x14,x7,40000584 <fail>
40000384:	00120213          	addi	x4,x4,1 # 1 <_start-0x3fffffff>
40000388:	00200293          	li	x5,2
4000038c:	fc5218e3          	bne	x4,x5,4000035c <test_15+0x8>

40000390 <test_16>:
40000390:	01000193          	li	x3,16
40000394:	00000213          	li	x4,0
40000398:	ccddb0b7          	lui	x1,0xccddb
4000039c:	abb08093          	addi	x1,x1,-1349 # ccddaabb <end_signature+0x8cdda4bb>
400003a0:	00000013          	nop
400003a4:	00000117          	auipc	x2,0x0
400003a8:	22c10113          	addi	x2,x2,556 # 400005d0 <begin_signature>
400003ac:	00000013          	nop
400003b0:	00112823          	sw	x1,16(x2)
400003b4:	01012703          	lw	x14,16(x2)
400003b8:	ccddb3b7          	lui	x7,0xccddb
400003bc:	abb38393          	addi	x7,x7,-1349 # ccddaabb <end_signature+0x8cdda4bb>
400003c0:	1c771263          	bne	x14,x7,40000584 <fail>
400003c4:	00120213          	addi	x4,x4,1 # 1 <_start-0x3fffffff>
400003c8:	00200293          	li	x5,2
400003cc:	fc5216e3          	bne	x4,x5,40000398 <test_16+0x8>

400003d0 <test_17>:
400003d0:	01100193          	li	x3,17
400003d4:	00000213          	li	x4,0
400003d8:	bccde0b7          	lui	x1,0xbccde
400003dc:	aab08093          	addi	x1,x1,-1365 # bccddaab <end_signature+0x7ccdd4ab>
400003e0:	00000013          	nop
400003e4:	00000013          	nop
400003e8:	00000117          	auipc	x2,0x0
400003ec:	1e810113          	addi	x2,x2,488 # 400005d0 <begin_signature>
400003f0:	00112a23          	sw	x1,20(x2)
400003f4:	01412703          	lw	x14,20(x2)
400003f8:	bccde3b7          	lui	x7,0xbccde
400003fc:	aab38393          	addi	x7,x7,-1365 # bccddaab <end_signature+0x7ccdd4ab>
40000400:	18771263          	bne	x14,x7,40000584 <fail>
40000404:	00120213          	addi	x4,x4,1 # 1 <_start-0x3fffffff>
40000408:	00200293          	li	x5,2
4000040c:	fc5216e3          	bne	x4,x5,400003d8 <test_17+0x8>

40000410 <test_18>:
40000410:	01200193          	li	x3,18
40000414:	00000213          	li	x4,0
40000418:	00000117          	auipc	x2,0x0
4000041c:	1b810113          	addi	x2,x2,440 # 400005d0 <begin_signature>
40000420:	001120b7          	lui	x1,0x112
40000424:	23308093          	addi	x1,x1,563 # 112233 <_start-0x3feeddcd>
40000428:	00112023          	sw	x1,0(x2)
4000042c:	00012703          	lw	x14,0(x2)
40000430:	001123b7          	lui	x7,0x112
40000434:	23338393          	addi	x7,x7,563 # 112233 <_start-0x3feeddcd>
40000438:	14771663          	bne	x14,x7,40000584 <fail>
4000043c:	00120213          	addi	x4,x4,1 # 1 <_start-0x3fffffff>
40000440:	00200293          	li	x5,2
40000444:	fc521ae3          	bne	x4,x5,40000418 <test_18+0x8>

40000448 <test_19>:
40000448:	01300193          	li	x3,19
4000044c:	00000213          	li	x4,0
40000450:	00000117          	auipc	x2,0x0
40000454:	18010113          	addi	x2,x2,384 # 400005d0 <begin_signature>
40000458:	300110b7          	lui	x1,0x30011
4000045c:	22308093          	addi	x1,x1,547 # 30011223 <_start-0xffeeddd>
40000460:	00000013          	nop
40000464:	00112223          	sw	x1,4(x2)
40000468:	00412703          	lw	x14,4(x2)
4000046c:	300113b7          	lui	x7,0x30011
40000470:	22338393          	addi	x7,x7,547 # 30011223 <_start-0xffeeddd>
40000474:	10771863          	bne	x14,x7,40000584 <fail>
40000478:	00120213          	addi	x4,x4,1 # 1 <_start-0x3fffffff>
4000047c:	00200293          	li	x5,2
40000480:	fc5218e3          	bne	x4,x5,40000450 <test_19+0x8>

40000484 <test_20>:
40000484:	01400193          	li	x3,20
40000488:	00000213          	li	x4,0
4000048c:	00000117          	auipc	x2,0x0
40000490:	14410113          	addi	x2,x2,324 # 400005d0 <begin_signature>
40000494:	330010b7          	lui	x1,0x33001
40000498:	12208093          	addi	x1,x1,290 # 33001122 <_start-0xcffeede>
4000049c:	00000013          	nop
400004a0:	00000013          	nop
400004a4:	00112423          	sw	x1,8(x2)
400004a8:	00812703          	lw	x14,8(x2)
400004ac:	330013b7          	lui	x7,0x33001
400004b0:	12238393          	addi	x7,x7,290 # 33001122 <_start-0xcffeede>
400004b4:	0c771863          	bne	x14,x7,40000584 <fail>
400004b8:	00120213          	addi	x4,x4,1 # 1 <_start-0x3fffffff>
400004bc:	00200293          	li	x5,2
400004c0:	fc5216e3          	bne	x4,x5,4000048c <test_20+0x8>

400004c4 <test_21>:
400004c4:	01500193          	li	x3,21
400004c8:	00000213          	li	x4,0
400004cc:	00000117          	auipc	x2,0x0
400004d0:	10410113          	addi	x2,x2,260 # 400005d0 <begin_signature>
400004d4:	00000013          	nop
400004d8:	233000b7          	lui	x1,0x23300
400004dc:	11208093          	addi	x1,x1,274 # 23300112 <_start-0x1ccffeee>
400004e0:	00112623          	sw	x1,12(x2)
400004e4:	00c12703          	lw	x14,12(x2)
400004e8:	233003b7          	lui	x7,0x23300
400004ec:	11238393          	addi	x7,x7,274 # 23300112 <_start-0x1ccffeee>
400004f0:	08771a63          	bne	x14,x7,40000584 <fail>
400004f4:	00120213          	addi	x4,x4,1 # 1 <_start-0x3fffffff>
400004f8:	00200293          	li	x5,2
400004fc:	fc5218e3          	bne	x4,x5,400004cc <test_21+0x8>

40000500 <test_22>:
40000500:	01600193          	li	x3,22
40000504:	00000213          	li	x4,0
40000508:	00000117          	auipc	x2,0x0
4000050c:	0c810113          	addi	x2,x2,200 # 400005d0 <begin_signature>
40000510:	00000013          	nop
40000514:	223300b7          	lui	x1,0x22330
40000518:	01108093          	addi	x1,x1,17 # 22330011 <_start-0x1dccffef>
4000051c:	00000013          	nop
40000520:	00112823          	sw	x1,16(x2)
40000524:	01012703          	lw	x14,16(x2)
40000528:	223303b7          	lui	x7,0x22330
4000052c:	01138393          	addi	x7,x7,17 # 22330011 <_start-0x1dccffef>
40000530:	04771a63          	bne	x14,x7,40000584 <fail>
40000534:	00120213          	addi	x4,x4,1 # 1 <_start-0x3fffffff>
40000538:	00200293          	li	x5,2
4000053c:	fc5216e3          	bne	x4,x5,40000508 <test_22+0x8>

40000540 <test_23>:
40000540:	01700193          	li	x3,23
40000544:	00000213          	li	x4,0
40000548:	00000117          	auipc	x2,0x0
4000054c:	08810113          	addi	x2,x2,136 # 400005d0 <begin_signature>
40000550:	00000013          	nop
40000554:	00000013          	nop
40000558:	122330b7          	lui	x1,0x12233
4000055c:	00108093          	addi	x1,x1,1 # 12233001 <_start-0x2ddccfff>
40000560:	00112a23          	sw	x1,20(x2)
40000564:	01412703          	lw	x14,20(x2)
40000568:	122333b7          	lui	x7,0x12233
4000056c:	00138393          	addi	x7,x7,1 # 12233001 <_start-0x2ddccfff>
40000570:	00771a63          	bne	x14,x7,40000584 <fail>
40000574:	00120213          	addi	x4,x4,1 # 1 <_start-0x3fffffff>
40000578:	00200293          	li	x5,2
4000057c:	fc5216e3          	bne	x4,x5,40000548 <test_23+0x8>
40000580:	00301863          	bne	x0,x3,40000590 <pass>

40000584 <fail>:
40000584:	eeeef1b7          	lui	x3,0xeeeef
40000588:	eee18193          	addi	x3,x3,-274 # eeeeeeee <end_signature+0xaeeee8ee>

4000058c <f>:
4000058c:	0000006f          	j	4000058c <f>

40000590 <pass>:
40000590:	fff00193          	li	x3,-1

40000594 <p>:
40000594:	0000006f          	j	40000594 <p>
40000598:	c0001073          	unimp
	...
