
echo_bios.elf:     file format elf32-littleriscv


Disassembly of section .text.init:

40000000 <_start>:
40000000:	00000093          	li	x1,0
40000004:	00000113          	li	x2,0
40000008:	00000193          	li	x3,0
4000000c:	00000213          	li	x4,0
40000010:	00000293          	li	x5,0
40000014:	00000313          	li	x6,0
40000018:	00000393          	li	x7,0
4000001c:	00000413          	li	x8,0
40000020:	00000493          	li	x9,0
40000024:	00000513          	li	x10,0
40000028:	00000593          	li	x11,0
4000002c:	00000613          	li	x12,0
40000030:	00000693          	li	x13,0
40000034:	00000713          	li	x14,0
40000038:	00000793          	li	x15,0
4000003c:	00000813          	li	x16,0
40000040:	00000893          	li	x17,0
40000044:	00000913          	li	x18,0
40000048:	00000993          	li	x19,0
4000004c:	00000a13          	li	x20,0
40000050:	00000a93          	li	x21,0
40000054:	00000b13          	li	x22,0
40000058:	00000b93          	li	x23,0
4000005c:	00000c13          	li	x24,0
40000060:	00000c93          	li	x25,0
40000064:	00000d13          	li	x26,0
40000068:	00000d93          	li	x27,0
4000006c:	00000e13          	li	x28,0
40000070:	00000e93          	li	x29,0
40000074:	00000f13          	li	x30,0
40000078:	00000f93          	li	x31,0
4000007c:	00001197          	auipc	x3,0x1
40000080:	78418193          	addi	x3,x3,1924 # 40001800 <_global_pointer>
40000084:	00002117          	auipc	x2,0x2
40000088:	f7c10113          	addi	x2,x2,-132 # 40002000 <_stack_pointer>
4000008c:	0e40006f          	j	40000170 <main>

Disassembly of section .text:

40000090 <read_token>:
40000090:	fd010113          	addi	x2,x2,-48
40000094:	02112623          	sw	x1,44(x2)
40000098:	02812423          	sw	x8,40(x2)
4000009c:	03010413          	addi	x8,x2,48
400000a0:	fca42e23          	sw	x10,-36(x8)
400000a4:	fcb42c23          	sw	x11,-40(x8)
400000a8:	fcc42a23          	sw	x12,-44(x8)
400000ac:	fe042623          	sw	x0,-20(x8)
400000b0:	0880006f          	j	40000138 <read_token+0xa8>
400000b4:	495000ef          	jal	40000d48 <uread_int8>
400000b8:	00050793          	mv	x15,x10
400000bc:	fef403a3          	sb	x15,-25(x8)
400000c0:	fe042423          	sw	x0,-24(x8)
400000c4:	0400006f          	j	40000104 <read_token+0x74>
400000c8:	fd442703          	lw	x14,-44(x8)
400000cc:	fe842783          	lw	x15,-24(x8)
400000d0:	00f707b3          	add	x15,x14,x15
400000d4:	0007c783          	lbu	x15,0(x15)
400000d8:	fe744703          	lbu	x14,-25(x8)
400000dc:	00f71e63          	bne	x14,x15,400000f8 <read_token+0x68>
400000e0:	fdc42703          	lw	x14,-36(x8)
400000e4:	fec42783          	lw	x15,-20(x8)
400000e8:	00f707b3          	add	x15,x14,x15
400000ec:	00078023          	sb	x0,0(x15)
400000f0:	fdc42783          	lw	x15,-36(x8)
400000f4:	0680006f          	j	4000015c <read_token+0xcc>
400000f8:	fe842783          	lw	x15,-24(x8)
400000fc:	00178793          	addi	x15,x15,1
40000100:	fef42423          	sw	x15,-24(x8)
40000104:	fd442703          	lw	x14,-44(x8)
40000108:	fe842783          	lw	x15,-24(x8)
4000010c:	00f707b3          	add	x15,x14,x15
40000110:	0007c783          	lbu	x15,0(x15)
40000114:	fa079ae3          	bnez	x15,400000c8 <read_token+0x38>
40000118:	fdc42703          	lw	x14,-36(x8)
4000011c:	fec42783          	lw	x15,-20(x8)
40000120:	00f707b3          	add	x15,x14,x15
40000124:	fe744703          	lbu	x14,-25(x8)
40000128:	00e78023          	sb	x14,0(x15)
4000012c:	fec42783          	lw	x15,-20(x8)
40000130:	00178793          	addi	x15,x15,1
40000134:	fef42623          	sw	x15,-20(x8)
40000138:	fec42703          	lw	x14,-20(x8)
4000013c:	fd842783          	lw	x15,-40(x8)
40000140:	f6f76ae3          	bltu	x14,x15,400000b4 <read_token+0x24>
40000144:	fd842783          	lw	x15,-40(x8)
40000148:	fff78793          	addi	x15,x15,-1
4000014c:	fdc42703          	lw	x14,-36(x8)
40000150:	00f707b3          	add	x15,x14,x15
40000154:	00078023          	sb	x0,0(x15)
40000158:	fdc42783          	lw	x15,-36(x8)
4000015c:	00078513          	mv	x10,x15
40000160:	02c12083          	lw	x1,44(x2)
40000164:	02812403          	lw	x8,40(x2)
40000168:	03010113          	addi	x2,x2,48
4000016c:	00008067          	ret

40000170 <main>:
40000170:	f6010113          	addi	x2,x2,-160
40000174:	08112e23          	sw	x1,156(x2)
40000178:	08812c23          	sw	x8,152(x2)
4000017c:	0a010413          	addi	x8,x2,160
40000180:	00001517          	auipc	x10,0x1
40000184:	c3c50513          	addi	x10,x10,-964 # 40000dbc <uread_int8+0x74>
40000188:	355000ef          	jal	40000cdc <uwrite_int8s>
4000018c:	00001517          	auipc	x10,0x1
40000190:	c3450513          	addi	x10,x10,-972 # 40000dc0 <uread_int8+0x78>
40000194:	349000ef          	jal	40000cdc <uwrite_int8s>
40000198:	f6840793          	addi	x15,x8,-152
4000019c:	00001617          	auipc	x12,0x1
400001a0:	c3060613          	addi	x12,x12,-976 # 40000dcc <uread_int8+0x84>
400001a4:	08000593          	li	x11,128
400001a8:	00078513          	mv	x10,x15
400001ac:	ee5ff0ef          	jal	40000090 <read_token>
400001b0:	fea42623          	sw	x10,-20(x8)
400001b4:	00001597          	auipc	x11,0x1
400001b8:	c1c58593          	addi	x11,x11,-996 # 40000dd0 <uread_int8+0x88>
400001bc:	fec42503          	lw	x10,-20(x8)
400001c0:	209000ef          	jal	40000bc8 <strcmp>
400001c4:	00050793          	mv	x15,x10
400001c8:	02079c63          	bnez	x15,40000200 <main+0x90>
400001cc:	f6840793          	addi	x15,x8,-152
400001d0:	00001617          	auipc	x12,0x1
400001d4:	bfc60613          	addi	x12,x12,-1028 # 40000dcc <uread_int8+0x84>
400001d8:	08000593          	li	x11,128
400001dc:	00078513          	mv	x10,x15
400001e0:	eb1ff0ef          	jal	40000090 <read_token>
400001e4:	fea42423          	sw	x10,-24(x8)
400001e8:	fe842503          	lw	x10,-24(x8)
400001ec:	2f1000ef          	jal	40000cdc <uwrite_int8s>
400001f0:	00001517          	auipc	x10,0x1
400001f4:	be850513          	addi	x10,x10,-1048 # 40000dd8 <uread_int8+0x90>
400001f8:	2e5000ef          	jal	40000cdc <uwrite_int8s>
400001fc:	f91ff06f          	j	4000018c <main+0x1c>
40000200:	00001517          	auipc	x10,0x1
40000204:	bdc50513          	addi	x10,x10,-1060 # 40000ddc <uread_int8+0x94>
40000208:	2d5000ef          	jal	40000cdc <uwrite_int8s>
4000020c:	fec42503          	lw	x10,-20(x8)
40000210:	2cd000ef          	jal	40000cdc <uwrite_int8s>
40000214:	00001517          	auipc	x10,0x1
40000218:	bc450513          	addi	x10,x10,-1084 # 40000dd8 <uread_int8+0x90>
4000021c:	2c1000ef          	jal	40000cdc <uwrite_int8s>
40000220:	f6dff06f          	j	4000018c <main+0x1c>

40000224 <ascii_dec_to_uint8>:
40000224:	fd010113          	addi	x2,x2,-48
40000228:	02812623          	sw	x8,44(x2)
4000022c:	03010413          	addi	x8,x2,48
40000230:	fca42e23          	sw	x10,-36(x8)
40000234:	fe0407a3          	sb	x0,-17(x8)
40000238:	fe042423          	sw	x0,-24(x8)
4000023c:	0800006f          	j	400002bc <ascii_dec_to_uint8+0x98>
40000240:	fdc42703          	lw	x14,-36(x8)
40000244:	fe842783          	lw	x15,-24(x8)
40000248:	00f707b3          	add	x15,x14,x15
4000024c:	0007c703          	lbu	x14,0(x15)
40000250:	02f00793          	li	x15,47
40000254:	04e7fe63          	bgeu	x15,x14,400002b0 <ascii_dec_to_uint8+0x8c>
40000258:	fdc42703          	lw	x14,-36(x8)
4000025c:	fe842783          	lw	x15,-24(x8)
40000260:	00f707b3          	add	x15,x14,x15
40000264:	0007c703          	lbu	x14,0(x15)
40000268:	03900793          	li	x15,57
4000026c:	04e7e263          	bltu	x15,x14,400002b0 <ascii_dec_to_uint8+0x8c>
40000270:	fef44783          	lbu	x15,-17(x8)
40000274:	00379793          	slli	x15,x15,0x3
40000278:	0ff7f713          	zext.b	x14,x15
4000027c:	fef44783          	lbu	x15,-17(x8)
40000280:	00179793          	slli	x15,x15,0x1
40000284:	0ff7f793          	zext.b	x15,x15
40000288:	00f707b3          	add	x15,x14,x15
4000028c:	0ff7f713          	zext.b	x14,x15
40000290:	fdc42683          	lw	x13,-36(x8)
40000294:	fe842783          	lw	x15,-24(x8)
40000298:	00f687b3          	add	x15,x13,x15
4000029c:	0007c783          	lbu	x15,0(x15)
400002a0:	00f707b3          	add	x15,x14,x15
400002a4:	0ff7f793          	zext.b	x15,x15
400002a8:	fd078793          	addi	x15,x15,-48
400002ac:	fef407a3          	sb	x15,-17(x8)
400002b0:	fe842783          	lw	x15,-24(x8)
400002b4:	00178793          	addi	x15,x15,1
400002b8:	fef42423          	sw	x15,-24(x8)
400002bc:	fe842703          	lw	x14,-24(x8)
400002c0:	00200793          	li	x15,2
400002c4:	00e7ec63          	bltu	x15,x14,400002dc <ascii_dec_to_uint8+0xb8>
400002c8:	fdc42703          	lw	x14,-36(x8)
400002cc:	fe842783          	lw	x15,-24(x8)
400002d0:	00f707b3          	add	x15,x14,x15
400002d4:	0007c783          	lbu	x15,0(x15)
400002d8:	f60794e3          	bnez	x15,40000240 <ascii_dec_to_uint8+0x1c>
400002dc:	fef44783          	lbu	x15,-17(x8)
400002e0:	00078513          	mv	x10,x15
400002e4:	02c12403          	lw	x8,44(x2)
400002e8:	03010113          	addi	x2,x2,48
400002ec:	00008067          	ret

400002f0 <ascii_dec_to_uint16>:
400002f0:	fd010113          	addi	x2,x2,-48
400002f4:	02812623          	sw	x8,44(x2)
400002f8:	03010413          	addi	x8,x2,48
400002fc:	fca42e23          	sw	x10,-36(x8)
40000300:	fe041723          	sh	x0,-18(x8)
40000304:	fe042423          	sw	x0,-24(x8)
40000308:	0900006f          	j	40000398 <ascii_dec_to_uint16+0xa8>
4000030c:	fdc42703          	lw	x14,-36(x8)
40000310:	fe842783          	lw	x15,-24(x8)
40000314:	00f707b3          	add	x15,x14,x15
40000318:	0007c703          	lbu	x14,0(x15)
4000031c:	02f00793          	li	x15,47
40000320:	06e7f663          	bgeu	x15,x14,4000038c <ascii_dec_to_uint16+0x9c>
40000324:	fdc42703          	lw	x14,-36(x8)
40000328:	fe842783          	lw	x15,-24(x8)
4000032c:	00f707b3          	add	x15,x14,x15
40000330:	0007c703          	lbu	x14,0(x15)
40000334:	03900793          	li	x15,57
40000338:	04e7ea63          	bltu	x15,x14,4000038c <ascii_dec_to_uint16+0x9c>
4000033c:	fee45783          	lhu	x15,-18(x8)
40000340:	00379793          	slli	x15,x15,0x3
40000344:	01079713          	slli	x14,x15,0x10
40000348:	01075713          	srli	x14,x14,0x10
4000034c:	fee45783          	lhu	x15,-18(x8)
40000350:	00179793          	slli	x15,x15,0x1
40000354:	01079793          	slli	x15,x15,0x10
40000358:	0107d793          	srli	x15,x15,0x10
4000035c:	00f707b3          	add	x15,x14,x15
40000360:	01079793          	slli	x15,x15,0x10
40000364:	0107d793          	srli	x15,x15,0x10
40000368:	fdc42683          	lw	x13,-36(x8)
4000036c:	fe842703          	lw	x14,-24(x8)
40000370:	00e68733          	add	x14,x13,x14
40000374:	00074703          	lbu	x14,0(x14)
40000378:	00e787b3          	add	x15,x15,x14
4000037c:	01079793          	slli	x15,x15,0x10
40000380:	0107d793          	srli	x15,x15,0x10
40000384:	fd078793          	addi	x15,x15,-48
40000388:	fef41723          	sh	x15,-18(x8)
4000038c:	fe842783          	lw	x15,-24(x8)
40000390:	00178793          	addi	x15,x15,1
40000394:	fef42423          	sw	x15,-24(x8)
40000398:	fe842703          	lw	x14,-24(x8)
4000039c:	00400793          	li	x15,4
400003a0:	00e7ec63          	bltu	x15,x14,400003b8 <ascii_dec_to_uint16+0xc8>
400003a4:	fdc42703          	lw	x14,-36(x8)
400003a8:	fe842783          	lw	x15,-24(x8)
400003ac:	00f707b3          	add	x15,x14,x15
400003b0:	0007c783          	lbu	x15,0(x15)
400003b4:	f4079ce3          	bnez	x15,4000030c <ascii_dec_to_uint16+0x1c>
400003b8:	fee45783          	lhu	x15,-18(x8)
400003bc:	00078513          	mv	x10,x15
400003c0:	02c12403          	lw	x8,44(x2)
400003c4:	03010113          	addi	x2,x2,48
400003c8:	00008067          	ret

400003cc <ascii_dec_to_uint32>:
400003cc:	fd010113          	addi	x2,x2,-48
400003d0:	02812623          	sw	x8,44(x2)
400003d4:	03010413          	addi	x8,x2,48
400003d8:	fca42e23          	sw	x10,-36(x8)
400003dc:	fe042623          	sw	x0,-20(x8)
400003e0:	fe042423          	sw	x0,-24(x8)
400003e4:	0700006f          	j	40000454 <ascii_dec_to_uint32+0x88>
400003e8:	fdc42703          	lw	x14,-36(x8)
400003ec:	fe842783          	lw	x15,-24(x8)
400003f0:	00f707b3          	add	x15,x14,x15
400003f4:	0007c703          	lbu	x14,0(x15)
400003f8:	02f00793          	li	x15,47
400003fc:	04e7f663          	bgeu	x15,x14,40000448 <ascii_dec_to_uint32+0x7c>
40000400:	fdc42703          	lw	x14,-36(x8)
40000404:	fe842783          	lw	x15,-24(x8)
40000408:	00f707b3          	add	x15,x14,x15
4000040c:	0007c703          	lbu	x14,0(x15)
40000410:	03900793          	li	x15,57
40000414:	02e7ea63          	bltu	x15,x14,40000448 <ascii_dec_to_uint32+0x7c>
40000418:	fec42783          	lw	x15,-20(x8)
4000041c:	00379713          	slli	x14,x15,0x3
40000420:	fec42783          	lw	x15,-20(x8)
40000424:	00179793          	slli	x15,x15,0x1
40000428:	00f707b3          	add	x15,x14,x15
4000042c:	fdc42683          	lw	x13,-36(x8)
40000430:	fe842703          	lw	x14,-24(x8)
40000434:	00e68733          	add	x14,x13,x14
40000438:	00074703          	lbu	x14,0(x14)
4000043c:	00e787b3          	add	x15,x15,x14
40000440:	fd078793          	addi	x15,x15,-48
40000444:	fef42623          	sw	x15,-20(x8)
40000448:	fe842783          	lw	x15,-24(x8)
4000044c:	00178793          	addi	x15,x15,1
40000450:	fef42423          	sw	x15,-24(x8)
40000454:	fe842703          	lw	x14,-24(x8)
40000458:	00800793          	li	x15,8
4000045c:	00e7ec63          	bltu	x15,x14,40000474 <ascii_dec_to_uint32+0xa8>
40000460:	fdc42703          	lw	x14,-36(x8)
40000464:	fe842783          	lw	x15,-24(x8)
40000468:	00f707b3          	add	x15,x14,x15
4000046c:	0007c783          	lbu	x15,0(x15)
40000470:	f6079ce3          	bnez	x15,400003e8 <ascii_dec_to_uint32+0x1c>
40000474:	fec42783          	lw	x15,-20(x8)
40000478:	00078513          	mv	x10,x15
4000047c:	02c12403          	lw	x8,44(x2)
40000480:	03010113          	addi	x2,x2,48
40000484:	00008067          	ret

40000488 <ascii_hex_to_uint8>:
40000488:	fd010113          	addi	x2,x2,-48
4000048c:	02812623          	sw	x8,44(x2)
40000490:	03010413          	addi	x8,x2,48
40000494:	fca42e23          	sw	x10,-36(x8)
40000498:	fe0407a3          	sb	x0,-17(x8)
4000049c:	fe040723          	sb	x0,-18(x8)
400004a0:	1240006f          	j	400005c4 <ascii_hex_to_uint8+0x13c>
400004a4:	fee44783          	lbu	x15,-18(x8)
400004a8:	fdc42703          	lw	x14,-36(x8)
400004ac:	00f707b3          	add	x15,x14,x15
400004b0:	0007c703          	lbu	x14,0(x15)
400004b4:	02f00793          	li	x15,47
400004b8:	04e7f463          	bgeu	x15,x14,40000500 <ascii_hex_to_uint8+0x78>
400004bc:	fee44783          	lbu	x15,-18(x8)
400004c0:	fdc42703          	lw	x14,-36(x8)
400004c4:	00f707b3          	add	x15,x14,x15
400004c8:	0007c703          	lbu	x14,0(x15)
400004cc:	03900793          	li	x15,57
400004d0:	02e7e863          	bltu	x15,x14,40000500 <ascii_hex_to_uint8+0x78>
400004d4:	fef44783          	lbu	x15,-17(x8)
400004d8:	00479793          	slli	x15,x15,0x4
400004dc:	0ff7f713          	zext.b	x14,x15
400004e0:	fee44783          	lbu	x15,-18(x8)
400004e4:	fdc42683          	lw	x13,-36(x8)
400004e8:	00f687b3          	add	x15,x13,x15
400004ec:	0007c783          	lbu	x15,0(x15)
400004f0:	00f707b3          	add	x15,x14,x15
400004f4:	0ff7f793          	zext.b	x15,x15
400004f8:	fd078793          	addi	x15,x15,-48
400004fc:	fef407a3          	sb	x15,-17(x8)
40000500:	fee44783          	lbu	x15,-18(x8)
40000504:	fdc42703          	lw	x14,-36(x8)
40000508:	00f707b3          	add	x15,x14,x15
4000050c:	0007c703          	lbu	x14,0(x15)
40000510:	06000793          	li	x15,96
40000514:	04e7f463          	bgeu	x15,x14,4000055c <ascii_hex_to_uint8+0xd4>
40000518:	fee44783          	lbu	x15,-18(x8)
4000051c:	fdc42703          	lw	x14,-36(x8)
40000520:	00f707b3          	add	x15,x14,x15
40000524:	0007c703          	lbu	x14,0(x15)
40000528:	06600793          	li	x15,102
4000052c:	02e7e863          	bltu	x15,x14,4000055c <ascii_hex_to_uint8+0xd4>
40000530:	fef44783          	lbu	x15,-17(x8)
40000534:	00479793          	slli	x15,x15,0x4
40000538:	0ff7f713          	zext.b	x14,x15
4000053c:	fee44783          	lbu	x15,-18(x8)
40000540:	fdc42683          	lw	x13,-36(x8)
40000544:	00f687b3          	add	x15,x13,x15
40000548:	0007c783          	lbu	x15,0(x15)
4000054c:	00f707b3          	add	x15,x14,x15
40000550:	0ff7f793          	zext.b	x15,x15
40000554:	fa978793          	addi	x15,x15,-87
40000558:	fef407a3          	sb	x15,-17(x8)
4000055c:	fee44783          	lbu	x15,-18(x8)
40000560:	fdc42703          	lw	x14,-36(x8)
40000564:	00f707b3          	add	x15,x14,x15
40000568:	0007c703          	lbu	x14,0(x15)
4000056c:	04000793          	li	x15,64
40000570:	04e7f463          	bgeu	x15,x14,400005b8 <ascii_hex_to_uint8+0x130>
40000574:	fee44783          	lbu	x15,-18(x8)
40000578:	fdc42703          	lw	x14,-36(x8)
4000057c:	00f707b3          	add	x15,x14,x15
40000580:	0007c703          	lbu	x14,0(x15)
40000584:	04600793          	li	x15,70
40000588:	02e7e863          	bltu	x15,x14,400005b8 <ascii_hex_to_uint8+0x130>
4000058c:	fef44783          	lbu	x15,-17(x8)
40000590:	00479793          	slli	x15,x15,0x4
40000594:	0ff7f713          	zext.b	x14,x15
40000598:	fee44783          	lbu	x15,-18(x8)
4000059c:	fdc42683          	lw	x13,-36(x8)
400005a0:	00f687b3          	add	x15,x13,x15
400005a4:	0007c783          	lbu	x15,0(x15)
400005a8:	00f707b3          	add	x15,x14,x15
400005ac:	0ff7f793          	zext.b	x15,x15
400005b0:	fc978793          	addi	x15,x15,-55
400005b4:	fef407a3          	sb	x15,-17(x8)
400005b8:	fee44783          	lbu	x15,-18(x8)
400005bc:	00178793          	addi	x15,x15,1
400005c0:	fef40723          	sb	x15,-18(x8)
400005c4:	fee44703          	lbu	x14,-18(x8)
400005c8:	00100793          	li	x15,1
400005cc:	00e7ec63          	bltu	x15,x14,400005e4 <ascii_hex_to_uint8+0x15c>
400005d0:	fee44783          	lbu	x15,-18(x8)
400005d4:	fdc42703          	lw	x14,-36(x8)
400005d8:	00f707b3          	add	x15,x14,x15
400005dc:	0007c783          	lbu	x15,0(x15)
400005e0:	ec0792e3          	bnez	x15,400004a4 <ascii_hex_to_uint8+0x1c>
400005e4:	fef44783          	lbu	x15,-17(x8)
400005e8:	00078513          	mv	x10,x15
400005ec:	02c12403          	lw	x8,44(x2)
400005f0:	03010113          	addi	x2,x2,48
400005f4:	00008067          	ret

400005f8 <ascii_hex_to_uint16>:
400005f8:	fd010113          	addi	x2,x2,-48
400005fc:	02812623          	sw	x8,44(x2)
40000600:	03010413          	addi	x8,x2,48
40000604:	fca42e23          	sw	x10,-36(x8)
40000608:	fe041723          	sh	x0,-18(x8)
4000060c:	fe041623          	sh	x0,-20(x8)
40000610:	13c0006f          	j	4000074c <ascii_hex_to_uint16+0x154>
40000614:	fec45783          	lhu	x15,-20(x8)
40000618:	fdc42703          	lw	x14,-36(x8)
4000061c:	00f707b3          	add	x15,x14,x15
40000620:	0007c703          	lbu	x14,0(x15)
40000624:	02f00793          	li	x15,47
40000628:	04e7f863          	bgeu	x15,x14,40000678 <ascii_hex_to_uint16+0x80>
4000062c:	fec45783          	lhu	x15,-20(x8)
40000630:	fdc42703          	lw	x14,-36(x8)
40000634:	00f707b3          	add	x15,x14,x15
40000638:	0007c703          	lbu	x14,0(x15)
4000063c:	03900793          	li	x15,57
40000640:	02e7ec63          	bltu	x15,x14,40000678 <ascii_hex_to_uint16+0x80>
40000644:	fee45783          	lhu	x15,-18(x8)
40000648:	00479793          	slli	x15,x15,0x4
4000064c:	01079793          	slli	x15,x15,0x10
40000650:	0107d793          	srli	x15,x15,0x10
40000654:	fec45703          	lhu	x14,-20(x8)
40000658:	fdc42683          	lw	x13,-36(x8)
4000065c:	00e68733          	add	x14,x13,x14
40000660:	00074703          	lbu	x14,0(x14)
40000664:	00e787b3          	add	x15,x15,x14
40000668:	01079793          	slli	x15,x15,0x10
4000066c:	0107d793          	srli	x15,x15,0x10
40000670:	fd078793          	addi	x15,x15,-48
40000674:	fef41723          	sh	x15,-18(x8)
40000678:	fec45783          	lhu	x15,-20(x8)
4000067c:	fdc42703          	lw	x14,-36(x8)
40000680:	00f707b3          	add	x15,x14,x15
40000684:	0007c703          	lbu	x14,0(x15)
40000688:	06000793          	li	x15,96
4000068c:	04e7f863          	bgeu	x15,x14,400006dc <ascii_hex_to_uint16+0xe4>
40000690:	fec45783          	lhu	x15,-20(x8)
40000694:	fdc42703          	lw	x14,-36(x8)
40000698:	00f707b3          	add	x15,x14,x15
4000069c:	0007c703          	lbu	x14,0(x15)
400006a0:	06600793          	li	x15,102
400006a4:	02e7ec63          	bltu	x15,x14,400006dc <ascii_hex_to_uint16+0xe4>
400006a8:	fee45783          	lhu	x15,-18(x8)
400006ac:	00479793          	slli	x15,x15,0x4
400006b0:	01079793          	slli	x15,x15,0x10
400006b4:	0107d793          	srli	x15,x15,0x10
400006b8:	fec45703          	lhu	x14,-20(x8)
400006bc:	fdc42683          	lw	x13,-36(x8)
400006c0:	00e68733          	add	x14,x13,x14
400006c4:	00074703          	lbu	x14,0(x14)
400006c8:	00e787b3          	add	x15,x15,x14
400006cc:	01079793          	slli	x15,x15,0x10
400006d0:	0107d793          	srli	x15,x15,0x10
400006d4:	fa978793          	addi	x15,x15,-87
400006d8:	fef41723          	sh	x15,-18(x8)
400006dc:	fec45783          	lhu	x15,-20(x8)
400006e0:	fdc42703          	lw	x14,-36(x8)
400006e4:	00f707b3          	add	x15,x14,x15
400006e8:	0007c703          	lbu	x14,0(x15)
400006ec:	04000793          	li	x15,64
400006f0:	04e7f863          	bgeu	x15,x14,40000740 <ascii_hex_to_uint16+0x148>
400006f4:	fec45783          	lhu	x15,-20(x8)
400006f8:	fdc42703          	lw	x14,-36(x8)
400006fc:	00f707b3          	add	x15,x14,x15
40000700:	0007c703          	lbu	x14,0(x15)
40000704:	04600793          	li	x15,70
40000708:	02e7ec63          	bltu	x15,x14,40000740 <ascii_hex_to_uint16+0x148>
4000070c:	fee45783          	lhu	x15,-18(x8)
40000710:	00479793          	slli	x15,x15,0x4
40000714:	01079793          	slli	x15,x15,0x10
40000718:	0107d793          	srli	x15,x15,0x10
4000071c:	fec45703          	lhu	x14,-20(x8)
40000720:	fdc42683          	lw	x13,-36(x8)
40000724:	00e68733          	add	x14,x13,x14
40000728:	00074703          	lbu	x14,0(x14)
4000072c:	00e787b3          	add	x15,x15,x14
40000730:	01079793          	slli	x15,x15,0x10
40000734:	0107d793          	srli	x15,x15,0x10
40000738:	fc978793          	addi	x15,x15,-55
4000073c:	fef41723          	sh	x15,-18(x8)
40000740:	fec45783          	lhu	x15,-20(x8)
40000744:	00178793          	addi	x15,x15,1
40000748:	fef41623          	sh	x15,-20(x8)
4000074c:	fec45703          	lhu	x14,-20(x8)
40000750:	00300793          	li	x15,3
40000754:	00e7ec63          	bltu	x15,x14,4000076c <ascii_hex_to_uint16+0x174>
40000758:	fec45783          	lhu	x15,-20(x8)
4000075c:	fdc42703          	lw	x14,-36(x8)
40000760:	00f707b3          	add	x15,x14,x15
40000764:	0007c783          	lbu	x15,0(x15)
40000768:	ea0796e3          	bnez	x15,40000614 <ascii_hex_to_uint16+0x1c>
4000076c:	fee45783          	lhu	x15,-18(x8)
40000770:	00078513          	mv	x10,x15
40000774:	02c12403          	lw	x8,44(x2)
40000778:	03010113          	addi	x2,x2,48
4000077c:	00008067          	ret

40000780 <ascii_hex_to_uint32>:
40000780:	fd010113          	addi	x2,x2,-48
40000784:	02812623          	sw	x8,44(x2)
40000788:	03010413          	addi	x8,x2,48
4000078c:	fca42e23          	sw	x10,-36(x8)
40000790:	fe042623          	sw	x0,-20(x8)
40000794:	fe042423          	sw	x0,-24(x8)
40000798:	10c0006f          	j	400008a4 <ascii_hex_to_uint32+0x124>
4000079c:	fdc42703          	lw	x14,-36(x8)
400007a0:	fe842783          	lw	x15,-24(x8)
400007a4:	00f707b3          	add	x15,x14,x15
400007a8:	0007c703          	lbu	x14,0(x15)
400007ac:	02f00793          	li	x15,47
400007b0:	04e7f063          	bgeu	x15,x14,400007f0 <ascii_hex_to_uint32+0x70>
400007b4:	fdc42703          	lw	x14,-36(x8)
400007b8:	fe842783          	lw	x15,-24(x8)
400007bc:	00f707b3          	add	x15,x14,x15
400007c0:	0007c703          	lbu	x14,0(x15)
400007c4:	03900793          	li	x15,57
400007c8:	02e7e463          	bltu	x15,x14,400007f0 <ascii_hex_to_uint32+0x70>
400007cc:	fec42783          	lw	x15,-20(x8)
400007d0:	00479793          	slli	x15,x15,0x4
400007d4:	fdc42683          	lw	x13,-36(x8)
400007d8:	fe842703          	lw	x14,-24(x8)
400007dc:	00e68733          	add	x14,x13,x14
400007e0:	00074703          	lbu	x14,0(x14)
400007e4:	00e787b3          	add	x15,x15,x14
400007e8:	fd078793          	addi	x15,x15,-48
400007ec:	fef42623          	sw	x15,-20(x8)
400007f0:	fdc42703          	lw	x14,-36(x8)
400007f4:	fe842783          	lw	x15,-24(x8)
400007f8:	00f707b3          	add	x15,x14,x15
400007fc:	0007c703          	lbu	x14,0(x15)
40000800:	06000793          	li	x15,96
40000804:	04e7f063          	bgeu	x15,x14,40000844 <ascii_hex_to_uint32+0xc4>
40000808:	fdc42703          	lw	x14,-36(x8)
4000080c:	fe842783          	lw	x15,-24(x8)
40000810:	00f707b3          	add	x15,x14,x15
40000814:	0007c703          	lbu	x14,0(x15)
40000818:	06600793          	li	x15,102
4000081c:	02e7e463          	bltu	x15,x14,40000844 <ascii_hex_to_uint32+0xc4>
40000820:	fec42783          	lw	x15,-20(x8)
40000824:	00479793          	slli	x15,x15,0x4
40000828:	fdc42683          	lw	x13,-36(x8)
4000082c:	fe842703          	lw	x14,-24(x8)
40000830:	00e68733          	add	x14,x13,x14
40000834:	00074703          	lbu	x14,0(x14)
40000838:	00e787b3          	add	x15,x15,x14
4000083c:	fa978793          	addi	x15,x15,-87
40000840:	fef42623          	sw	x15,-20(x8)
40000844:	fdc42703          	lw	x14,-36(x8)
40000848:	fe842783          	lw	x15,-24(x8)
4000084c:	00f707b3          	add	x15,x14,x15
40000850:	0007c703          	lbu	x14,0(x15)
40000854:	04000793          	li	x15,64
40000858:	04e7f063          	bgeu	x15,x14,40000898 <ascii_hex_to_uint32+0x118>
4000085c:	fdc42703          	lw	x14,-36(x8)
40000860:	fe842783          	lw	x15,-24(x8)
40000864:	00f707b3          	add	x15,x14,x15
40000868:	0007c703          	lbu	x14,0(x15)
4000086c:	04600793          	li	x15,70
40000870:	02e7e463          	bltu	x15,x14,40000898 <ascii_hex_to_uint32+0x118>
40000874:	fec42783          	lw	x15,-20(x8)
40000878:	00479793          	slli	x15,x15,0x4
4000087c:	fdc42683          	lw	x13,-36(x8)
40000880:	fe842703          	lw	x14,-24(x8)
40000884:	00e68733          	add	x14,x13,x14
40000888:	00074703          	lbu	x14,0(x14)
4000088c:	00e787b3          	add	x15,x15,x14
40000890:	fc978793          	addi	x15,x15,-55
40000894:	fef42623          	sw	x15,-20(x8)
40000898:	fe842783          	lw	x15,-24(x8)
4000089c:	00178793          	addi	x15,x15,1
400008a0:	fef42423          	sw	x15,-24(x8)
400008a4:	fe842703          	lw	x14,-24(x8)
400008a8:	00700793          	li	x15,7
400008ac:	00e7ec63          	bltu	x15,x14,400008c4 <ascii_hex_to_uint32+0x144>
400008b0:	fdc42703          	lw	x14,-36(x8)
400008b4:	fe842783          	lw	x15,-24(x8)
400008b8:	00f707b3          	add	x15,x14,x15
400008bc:	0007c783          	lbu	x15,0(x15)
400008c0:	ec079ee3          	bnez	x15,4000079c <ascii_hex_to_uint32+0x1c>
400008c4:	fec42783          	lw	x15,-20(x8)
400008c8:	00078513          	mv	x10,x15
400008cc:	02c12403          	lw	x8,44(x2)
400008d0:	03010113          	addi	x2,x2,48
400008d4:	00008067          	ret

400008d8 <uint8_to_ascii_hex>:
400008d8:	fd010113          	addi	x2,x2,-48
400008dc:	02812623          	sw	x8,44(x2)
400008e0:	03010413          	addi	x8,x2,48
400008e4:	00050793          	mv	x15,x10
400008e8:	fcb42c23          	sw	x11,-40(x8)
400008ec:	fcc42a23          	sw	x12,-44(x8)
400008f0:	fcf40fa3          	sb	x15,-33(x8)
400008f4:	fe042623          	sw	x0,-20(x8)
400008f8:	00200793          	li	x15,2
400008fc:	fef42423          	sw	x15,-24(x8)
40000900:	0940006f          	j	40000994 <uint8_to_ascii_hex+0xbc>
40000904:	fdf44703          	lbu	x14,-33(x8)
40000908:	fe842683          	lw	x13,-24(x8)
4000090c:	fec42783          	lw	x15,-20(x8)
40000910:	40f687b3          	sub	x15,x13,x15
40000914:	fff78793          	addi	x15,x15,-1
40000918:	00279793          	slli	x15,x15,0x2
4000091c:	40f757b3          	sra	x15,x14,x15
40000920:	0ff7f793          	zext.b	x15,x15
40000924:	00f7f793          	andi	x15,x15,15
40000928:	fef403a3          	sb	x15,-25(x8)
4000092c:	fe744703          	lbu	x14,-25(x8)
40000930:	00900793          	li	x15,9
40000934:	02e7e063          	bltu	x15,x14,40000954 <uint8_to_ascii_hex+0x7c>
40000938:	fd842703          	lw	x14,-40(x8)
4000093c:	fec42783          	lw	x15,-20(x8)
40000940:	00f707b3          	add	x15,x14,x15
40000944:	fe744703          	lbu	x14,-25(x8)
40000948:	03070713          	addi	x14,x14,48
4000094c:	0ff77713          	zext.b	x14,x14
40000950:	00e78023          	sb	x14,0(x15)
40000954:	fe744703          	lbu	x14,-25(x8)
40000958:	00900793          	li	x15,9
4000095c:	02e7f663          	bgeu	x15,x14,40000988 <uint8_to_ascii_hex+0xb0>
40000960:	fe744703          	lbu	x14,-25(x8)
40000964:	00f00793          	li	x15,15
40000968:	02e7e063          	bltu	x15,x14,40000988 <uint8_to_ascii_hex+0xb0>
4000096c:	fd842703          	lw	x14,-40(x8)
40000970:	fec42783          	lw	x15,-20(x8)
40000974:	00f707b3          	add	x15,x14,x15
40000978:	fe744703          	lbu	x14,-25(x8)
4000097c:	05770713          	addi	x14,x14,87
40000980:	0ff77713          	zext.b	x14,x14
40000984:	00e78023          	sb	x14,0(x15)
40000988:	fec42783          	lw	x15,-20(x8)
4000098c:	00178793          	addi	x15,x15,1
40000990:	fef42623          	sw	x15,-20(x8)
40000994:	fec42703          	lw	x14,-20(x8)
40000998:	fe842783          	lw	x15,-24(x8)
4000099c:	00f77a63          	bgeu	x14,x15,400009b0 <uint8_to_ascii_hex+0xd8>
400009a0:	fec42783          	lw	x15,-20(x8)
400009a4:	00178793          	addi	x15,x15,1
400009a8:	fd442703          	lw	x14,-44(x8)
400009ac:	f4e7ece3          	bltu	x15,x14,40000904 <uint8_to_ascii_hex+0x2c>
400009b0:	fd842703          	lw	x14,-40(x8)
400009b4:	fec42783          	lw	x15,-20(x8)
400009b8:	00f707b3          	add	x15,x14,x15
400009bc:	00078023          	sb	x0,0(x15)
400009c0:	fd842783          	lw	x15,-40(x8)
400009c4:	00078513          	mv	x10,x15
400009c8:	02c12403          	lw	x8,44(x2)
400009cc:	03010113          	addi	x2,x2,48
400009d0:	00008067          	ret

400009d4 <uint16_to_ascii_hex>:
400009d4:	fd010113          	addi	x2,x2,-48
400009d8:	02812623          	sw	x8,44(x2)
400009dc:	03010413          	addi	x8,x2,48
400009e0:	00050793          	mv	x15,x10
400009e4:	fcb42c23          	sw	x11,-40(x8)
400009e8:	fcc42a23          	sw	x12,-44(x8)
400009ec:	fcf41f23          	sh	x15,-34(x8)
400009f0:	fe042623          	sw	x0,-20(x8)
400009f4:	00400793          	li	x15,4
400009f8:	fef42423          	sw	x15,-24(x8)
400009fc:	0940006f          	j	40000a90 <uint16_to_ascii_hex+0xbc>
40000a00:	fde45703          	lhu	x14,-34(x8)
40000a04:	fe842683          	lw	x13,-24(x8)
40000a08:	fec42783          	lw	x15,-20(x8)
40000a0c:	40f687b3          	sub	x15,x13,x15
40000a10:	fff78793          	addi	x15,x15,-1
40000a14:	00279793          	slli	x15,x15,0x2
40000a18:	40f757b3          	sra	x15,x14,x15
40000a1c:	0ff7f793          	zext.b	x15,x15
40000a20:	00f7f793          	andi	x15,x15,15
40000a24:	fef403a3          	sb	x15,-25(x8)
40000a28:	fe744703          	lbu	x14,-25(x8)
40000a2c:	00900793          	li	x15,9
40000a30:	02e7e063          	bltu	x15,x14,40000a50 <uint16_to_ascii_hex+0x7c>
40000a34:	fd842703          	lw	x14,-40(x8)
40000a38:	fec42783          	lw	x15,-20(x8)
40000a3c:	00f707b3          	add	x15,x14,x15
40000a40:	fe744703          	lbu	x14,-25(x8)
40000a44:	03070713          	addi	x14,x14,48
40000a48:	0ff77713          	zext.b	x14,x14
40000a4c:	00e78023          	sb	x14,0(x15)
40000a50:	fe744703          	lbu	x14,-25(x8)
40000a54:	00900793          	li	x15,9
40000a58:	02e7f663          	bgeu	x15,x14,40000a84 <uint16_to_ascii_hex+0xb0>
40000a5c:	fe744703          	lbu	x14,-25(x8)
40000a60:	00f00793          	li	x15,15
40000a64:	02e7e063          	bltu	x15,x14,40000a84 <uint16_to_ascii_hex+0xb0>
40000a68:	fd842703          	lw	x14,-40(x8)
40000a6c:	fec42783          	lw	x15,-20(x8)
40000a70:	00f707b3          	add	x15,x14,x15
40000a74:	fe744703          	lbu	x14,-25(x8)
40000a78:	05770713          	addi	x14,x14,87
40000a7c:	0ff77713          	zext.b	x14,x14
40000a80:	00e78023          	sb	x14,0(x15)
40000a84:	fec42783          	lw	x15,-20(x8)
40000a88:	00178793          	addi	x15,x15,1
40000a8c:	fef42623          	sw	x15,-20(x8)
40000a90:	fec42703          	lw	x14,-20(x8)
40000a94:	fe842783          	lw	x15,-24(x8)
40000a98:	00f77a63          	bgeu	x14,x15,40000aac <uint16_to_ascii_hex+0xd8>
40000a9c:	fec42783          	lw	x15,-20(x8)
40000aa0:	00178793          	addi	x15,x15,1
40000aa4:	fd442703          	lw	x14,-44(x8)
40000aa8:	f4e7ece3          	bltu	x15,x14,40000a00 <uint16_to_ascii_hex+0x2c>
40000aac:	fd842703          	lw	x14,-40(x8)
40000ab0:	fec42783          	lw	x15,-20(x8)
40000ab4:	00f707b3          	add	x15,x14,x15
40000ab8:	00078023          	sb	x0,0(x15)
40000abc:	fd842783          	lw	x15,-40(x8)
40000ac0:	00078513          	mv	x10,x15
40000ac4:	02c12403          	lw	x8,44(x2)
40000ac8:	03010113          	addi	x2,x2,48
40000acc:	00008067          	ret

40000ad0 <uint32_to_ascii_hex>:
40000ad0:	fd010113          	addi	x2,x2,-48
40000ad4:	02812623          	sw	x8,44(x2)
40000ad8:	03010413          	addi	x8,x2,48
40000adc:	fca42e23          	sw	x10,-36(x8)
40000ae0:	fcb42c23          	sw	x11,-40(x8)
40000ae4:	fcc42a23          	sw	x12,-44(x8)
40000ae8:	fe042623          	sw	x0,-20(x8)
40000aec:	00800793          	li	x15,8
40000af0:	fef42423          	sw	x15,-24(x8)
40000af4:	0940006f          	j	40000b88 <uint32_to_ascii_hex+0xb8>
40000af8:	fe842703          	lw	x14,-24(x8)
40000afc:	fec42783          	lw	x15,-20(x8)
40000b00:	40f707b3          	sub	x15,x14,x15
40000b04:	fff78793          	addi	x15,x15,-1
40000b08:	00279793          	slli	x15,x15,0x2
40000b0c:	fdc42703          	lw	x14,-36(x8)
40000b10:	00f757b3          	srl	x15,x14,x15
40000b14:	0ff7f793          	zext.b	x15,x15
40000b18:	00f7f793          	andi	x15,x15,15
40000b1c:	fef403a3          	sb	x15,-25(x8)
40000b20:	fe744703          	lbu	x14,-25(x8)
40000b24:	00900793          	li	x15,9
40000b28:	02e7e063          	bltu	x15,x14,40000b48 <uint32_to_ascii_hex+0x78>
40000b2c:	fd842703          	lw	x14,-40(x8)
40000b30:	fec42783          	lw	x15,-20(x8)
40000b34:	00f707b3          	add	x15,x14,x15
40000b38:	fe744703          	lbu	x14,-25(x8)
40000b3c:	03070713          	addi	x14,x14,48
40000b40:	0ff77713          	zext.b	x14,x14
40000b44:	00e78023          	sb	x14,0(x15)
40000b48:	fe744703          	lbu	x14,-25(x8)
40000b4c:	00900793          	li	x15,9
40000b50:	02e7f663          	bgeu	x15,x14,40000b7c <uint32_to_ascii_hex+0xac>
40000b54:	fe744703          	lbu	x14,-25(x8)
40000b58:	00f00793          	li	x15,15
40000b5c:	02e7e063          	bltu	x15,x14,40000b7c <uint32_to_ascii_hex+0xac>
40000b60:	fd842703          	lw	x14,-40(x8)
40000b64:	fec42783          	lw	x15,-20(x8)
40000b68:	00f707b3          	add	x15,x14,x15
40000b6c:	fe744703          	lbu	x14,-25(x8)
40000b70:	05770713          	addi	x14,x14,87
40000b74:	0ff77713          	zext.b	x14,x14
40000b78:	00e78023          	sb	x14,0(x15)
40000b7c:	fec42783          	lw	x15,-20(x8)
40000b80:	00178793          	addi	x15,x15,1
40000b84:	fef42623          	sw	x15,-20(x8)
40000b88:	fec42703          	lw	x14,-20(x8)
40000b8c:	fe842783          	lw	x15,-24(x8)
40000b90:	00f77a63          	bgeu	x14,x15,40000ba4 <uint32_to_ascii_hex+0xd4>
40000b94:	fec42783          	lw	x15,-20(x8)
40000b98:	00178793          	addi	x15,x15,1
40000b9c:	fd442703          	lw	x14,-44(x8)
40000ba0:	f4e7ece3          	bltu	x15,x14,40000af8 <uint32_to_ascii_hex+0x28>
40000ba4:	fd842703          	lw	x14,-40(x8)
40000ba8:	fec42783          	lw	x15,-20(x8)
40000bac:	00f707b3          	add	x15,x14,x15
40000bb0:	00078023          	sb	x0,0(x15)
40000bb4:	fd842783          	lw	x15,-40(x8)
40000bb8:	00078513          	mv	x10,x15
40000bbc:	02c12403          	lw	x8,44(x2)
40000bc0:	03010113          	addi	x2,x2,48
40000bc4:	00008067          	ret

40000bc8 <strcmp>:
40000bc8:	fd010113          	addi	x2,x2,-48
40000bcc:	02812623          	sw	x8,44(x2)
40000bd0:	03010413          	addi	x8,x2,48
40000bd4:	fca42e23          	sw	x10,-36(x8)
40000bd8:	fcb42c23          	sw	x11,-40(x8)
40000bdc:	fe042623          	sw	x0,-20(x8)
40000be0:	fdc42703          	lw	x14,-36(x8)
40000be4:	fec42783          	lw	x15,-20(x8)
40000be8:	00f707b3          	add	x15,x14,x15
40000bec:	0007c703          	lbu	x14,0(x15)
40000bf0:	fd842683          	lw	x13,-40(x8)
40000bf4:	fec42783          	lw	x15,-20(x8)
40000bf8:	00f687b3          	add	x15,x13,x15
40000bfc:	0007c783          	lbu	x15,0(x15)
40000c00:	00f70663          	beq	x14,x15,40000c0c <strcmp+0x44>
40000c04:	00100793          	li	x15,1
40000c08:	0300006f          	j	40000c38 <strcmp+0x70>
40000c0c:	fdc42703          	lw	x14,-36(x8)
40000c10:	fec42783          	lw	x15,-20(x8)
40000c14:	00f707b3          	add	x15,x14,x15
40000c18:	0007c783          	lbu	x15,0(x15)
40000c1c:	00078a63          	beqz	x15,40000c30 <strcmp+0x68>
40000c20:	fec42783          	lw	x15,-20(x8)
40000c24:	00178793          	addi	x15,x15,1
40000c28:	fef42623          	sw	x15,-20(x8)
40000c2c:	fb5ff06f          	j	40000be0 <strcmp+0x18>
40000c30:	00000013          	nop
40000c34:	00000793          	li	x15,0
40000c38:	00078513          	mv	x10,x15
40000c3c:	02c12403          	lw	x8,44(x2)
40000c40:	03010113          	addi	x2,x2,48
40000c44:	00008067          	ret

40000c48 <strlen>:
40000c48:	fd010113          	addi	x2,x2,-48
40000c4c:	02812623          	sw	x8,44(x2)
40000c50:	03010413          	addi	x8,x2,48
40000c54:	fca42e23          	sw	x10,-36(x8)
40000c58:	fe042623          	sw	x0,-20(x8)
40000c5c:	0100006f          	j	40000c6c <strlen+0x24>
40000c60:	fec42783          	lw	x15,-20(x8)
40000c64:	00178793          	addi	x15,x15,1
40000c68:	fef42623          	sw	x15,-20(x8)
40000c6c:	fdc42703          	lw	x14,-36(x8)
40000c70:	fec42783          	lw	x15,-20(x8)
40000c74:	00f707b3          	add	x15,x14,x15
40000c78:	0007c783          	lbu	x15,0(x15)
40000c7c:	fe0792e3          	bnez	x15,40000c60 <strlen+0x18>
40000c80:	fec42783          	lw	x15,-20(x8)
40000c84:	00078513          	mv	x10,x15
40000c88:	02c12403          	lw	x8,44(x2)
40000c8c:	03010113          	addi	x2,x2,48
40000c90:	00008067          	ret

40000c94 <uwrite_int8>:
40000c94:	fe010113          	addi	x2,x2,-32
40000c98:	00812e23          	sw	x8,28(x2)
40000c9c:	02010413          	addi	x8,x2,32
40000ca0:	00050793          	mv	x15,x10
40000ca4:	fef407a3          	sb	x15,-17(x8)
40000ca8:	00000013          	nop
40000cac:	800007b7          	lui	x15,0x80000
40000cb0:	0007a783          	lw	x15,0(x15) # 80000000 <_stack_pointer+0x3fffe000>
40000cb4:	0017f793          	andi	x15,x15,1
40000cb8:	fe078ae3          	beqz	x15,40000cac <uwrite_int8+0x18>
40000cbc:	800007b7          	lui	x15,0x80000
40000cc0:	00878793          	addi	x15,x15,8 # 80000008 <_stack_pointer+0x3fffe008>
40000cc4:	fef44703          	lbu	x14,-17(x8)
40000cc8:	00e7a023          	sw	x14,0(x15)
40000ccc:	00000013          	nop
40000cd0:	01c12403          	lw	x8,28(x2)
40000cd4:	02010113          	addi	x2,x2,32
40000cd8:	00008067          	ret

40000cdc <uwrite_int8s>:
40000cdc:	fd010113          	addi	x2,x2,-48
40000ce0:	02112623          	sw	x1,44(x2)
40000ce4:	02812423          	sw	x8,40(x2)
40000ce8:	03010413          	addi	x8,x2,48
40000cec:	fca42e23          	sw	x10,-36(x8)
40000cf0:	fe042623          	sw	x0,-20(x8)
40000cf4:	0280006f          	j	40000d1c <uwrite_int8s+0x40>
40000cf8:	fec42783          	lw	x15,-20(x8)
40000cfc:	fdc42703          	lw	x14,-36(x8)
40000d00:	00f707b3          	add	x15,x14,x15
40000d04:	0007c783          	lbu	x15,0(x15)
40000d08:	00078513          	mv	x10,x15
40000d0c:	f89ff0ef          	jal	40000c94 <uwrite_int8>
40000d10:	fec42783          	lw	x15,-20(x8)
40000d14:	00178793          	addi	x15,x15,1
40000d18:	fef42623          	sw	x15,-20(x8)
40000d1c:	fec42783          	lw	x15,-20(x8)
40000d20:	fdc42703          	lw	x14,-36(x8)
40000d24:	00f707b3          	add	x15,x14,x15
40000d28:	0007c783          	lbu	x15,0(x15)
40000d2c:	fc0796e3          	bnez	x15,40000cf8 <uwrite_int8s+0x1c>
40000d30:	00000013          	nop
40000d34:	00000013          	nop
40000d38:	02c12083          	lw	x1,44(x2)
40000d3c:	02812403          	lw	x8,40(x2)
40000d40:	03010113          	addi	x2,x2,48
40000d44:	00008067          	ret

40000d48 <uread_int8>:
40000d48:	fe010113          	addi	x2,x2,-32
40000d4c:	00112e23          	sw	x1,28(x2)
40000d50:	00812c23          	sw	x8,24(x2)
40000d54:	02010413          	addi	x8,x2,32
40000d58:	00000013          	nop
40000d5c:	800007b7          	lui	x15,0x80000
40000d60:	0007a783          	lw	x15,0(x15) # 80000000 <_stack_pointer+0x3fffe000>
40000d64:	0027f793          	andi	x15,x15,2
40000d68:	fe078ae3          	beqz	x15,40000d5c <uread_int8+0x14>
40000d6c:	800007b7          	lui	x15,0x80000
40000d70:	00478793          	addi	x15,x15,4 # 80000004 <_stack_pointer+0x3fffe004>
40000d74:	0007a783          	lw	x15,0(x15)
40000d78:	fef407a3          	sb	x15,-17(x8)
40000d7c:	fef44703          	lbu	x14,-17(x8)
40000d80:	00d00793          	li	x15,13
40000d84:	00f71a63          	bne	x14,x15,40000d98 <uread_int8+0x50>
40000d88:	00000517          	auipc	x10,0x0
40000d8c:	06c50513          	addi	x10,x10,108 # 40000df4 <uread_int8+0xac>
40000d90:	f4dff0ef          	jal	40000cdc <uwrite_int8s>
40000d94:	0100006f          	j	40000da4 <uread_int8+0x5c>
40000d98:	fef44783          	lbu	x15,-17(x8)
40000d9c:	00078513          	mv	x10,x15
40000da0:	ef5ff0ef          	jal	40000c94 <uwrite_int8>
40000da4:	fef44783          	lbu	x15,-17(x8)
40000da8:	00078513          	mv	x10,x15
40000dac:	01c12083          	lw	x1,28(x2)
40000db0:	01812403          	lw	x8,24(x2)
40000db4:	02010113          	addi	x2,x2,32
40000db8:	00008067          	ret

Disassembly of section .rodata:

40000dbc <_global_pointer-0xa44>:
40000dbc:	0a0d                	.insn	2, 0x0a0d
40000dbe:	0000                	.insn	2, 0x
40000dc0:	5652                	.insn	2, 0x5652
40000dc2:	505f 594a 203e      	.insn	6, 0x203e594a505f
40000dc8:	0000                	.insn	2, 0x
40000dca:	0000                	.insn	2, 0x
40000dcc:	0d20                	.insn	2, 0x0d20
40000dce:	0000                	.insn	2, 0x
40000dd0:	6365                	.insn	2, 0x6365
40000dd2:	6f68                	.insn	2, 0x6f68
40000dd4:	0000                	.insn	2, 0x
40000dd6:	0000                	.insn	2, 0x
40000dd8:	0d0a                	.insn	2, 0x0d0a
40000dda:	0000                	.insn	2, 0x
40000ddc:	6e55                	.insn	2, 0x6e55
40000dde:	6572                	.insn	2, 0x6572
40000de0:	6e676f63          	bltu	x14,x6,400014de <uread_int8+0x796>
40000de4:	7a69                	.insn	2, 0x7a69
40000de6:	6465                	.insn	2, 0x6465
40000de8:	7420                	.insn	2, 0x7420
40000dea:	6e656b6f          	jal	x22,400574d0 <_stack_pointer+0x554d0>
40000dee:	203a                	.insn	2, 0x203a
40000df0:	0000                	.insn	2, 0x
40000df2:	0000                	.insn	2, 0x
40000df4:	0a0d                	.insn	2, 0x0a0d
	...

Disassembly of section .comment:

00000000 <.comment>:
   0:	3a434347          	.insn	4, 0x3a434347
   4:	2820                	.insn	2, 0x2820
   6:	39386367          	.insn	4, 0x39386367
   a:	6431                	.insn	2, 0x6431
   c:	6438                	.insn	2, 0x6438
   e:	65333263          	.insn	4, 0x65333263
  12:	2029                	.insn	2, 0x2029
  14:	3331                	.insn	2, 0x3331
  16:	322e                	.insn	2, 0x322e
  18:	302e                	.insn	2, 0x302e
	...

Disassembly of section .riscv.attributes:

00000000 <.riscv.attributes>:
   0:	1b41                	.insn	2, 0x1b41
   2:	0000                	.insn	2, 0x
   4:	7200                	.insn	2, 0x7200
   6:	7369                	.insn	2, 0x7369
   8:	01007663          	bgeu	x0,x16,14 <_start-0x3fffffec>
   c:	0011                	.insn	2, 0x0011
   e:	0000                	.insn	2, 0x
  10:	1004                	.insn	2, 0x1004
  12:	7205                	.insn	2, 0x7205
  14:	3376                	.insn	2, 0x3376
  16:	6932                	.insn	2, 0x6932
  18:	7032                	.insn	2, 0x7032
  1a:	0031                	.insn	2, 0x0031
